BL51 BANKED LINKER/LOCATER V6.22                                                        05/23/2018  10:43:45  PAGE 1


BL51 BANKED LINKER/LOCATER V6.22, INVOKED BY:
C:\KEIL\C51\BIN\BL51.EXE STARTUP.obj, Config_ADC.obj, Config_Globale.obj, Config_SPI.obj, Detect_Obst.obj, Fonctions_cot
>> e_serializer.obj, Generation_son.obj, Gpio.obj, Lien_Structure_commande.obj, main.obj, Mesure_courant.obj, Servomoteu
>> r_Horizontal.obj, Timers.obj, Transmission_SPI.obj, UART0_RingBuffer_lib.obj, UART1.obj, ultrason.obj, Encodage_Point
>> eur_lum.obj TO Master RAMSIZE (256)


MEMORY MODEL: LARGE WITH FLOATING POINT ARITHMETIC


INPUT MODULES INCLUDED:
  STARTUP.obj (?C_STARTUP)
  Config_ADC.obj (CONFIG_ADC)
  Config_Globale.obj (CONFIG_GLOBALE)
  Config_SPI.obj (CONFIG_SPI)
  Detect_Obst.obj (DETECT_OBST)
  Fonctions_cote_serializer.obj (FONCTIONS_COTE_SERIALIZER)
  Generation_son.obj (GENERATION_SON)
  Gpio.obj (GPIO)
  Lien_Structure_commande.obj (LIEN_STRUCTURE_COMMANDE)
  main.obj (MAIN)
  Mesure_courant.obj (MESURE_COURANT)
  Servomoteur_Horizontal.obj (SERVOMOTEUR_HORIZONTAL)
  Timers.obj (TIMERS)
  Transmission_SPI.obj (TRANSMISSION_SPI)
  UART0_RingBuffer_lib.obj (UART0_RINGBUFFER_LIB)
  UART1.obj (UART1)
  ultrason.obj (ULTRASON)
  Encodage_Pointeur_lum.obj (ENCODAGE_POINTEUR_LUM)
  C:\KEIL\C51\LIB\C51FPL.LIB (?C?FPADD)
  C:\KEIL\C51\LIB\C51FPL.LIB (?C?FPMUL)
  C:\KEIL\C51\LIB\C51FPL.LIB (?C?FPDIV)
  C:\KEIL\C51\LIB\C51FPL.LIB (?C?FPCMP)
  C:\KEIL\C51\LIB\C51FPL.LIB (?C?FCAST)
  C:\KEIL\C51\LIB\C51FPL.LIB (?C?CASTF)
  C:\KEIL\C51\LIB\C51FPL.LIB (PRINTF)
  C:\KEIL\C51\LIB\C51FPL.LIB (ATAN)
  C:\KEIL\C51\LIB\C51FPL.LIB (CEIL)
  C:\KEIL\C51\LIB\C51FPL.LIB (POW)
  C:\KEIL\C51\LIB\C51FPL.LIB (?C?FPGETOPN)
  C:\KEIL\C51\LIB\C51FPL.LIB (?C?CHKFLOAT)
  C:\KEIL\C51\LIB\C51FPL.LIB (?C?FPNEG)
  C:\KEIL\C51\LIB\C51FPL.LIB (?C?FPROUND)
  C:\KEIL\C51\LIB\C51FPL.LIB (?C?FPCONVERT)
  C:\KEIL\C51\LIB\C51FPL.LIB (?C?FPSERIES)
  C:\KEIL\C51\LIB\C51FPL.LIB (EXP)
  C:\KEIL\C51\LIB\C51FPL.LIB (LOG)
  C:\KEIL\C51\LIB\C51FPL.LIB (?C?FTNPWR)
  C:\KEIL\C51\LIB\C51L.LIB (?C_INIT)
  C:\KEIL\C51\LIB\C51L.LIB (?C?COPY)
  C:\KEIL\C51\LIB\C51L.LIB (?C?SCDIV)
  C:\KEIL\C51\LIB\C51L.LIB (?C?CLDPTR)
  C:\KEIL\C51\LIB\C51L.LIB (?C?CLDOPTR)
  C:\KEIL\C51\LIB\C51L.LIB (?C?CSTPTR)
  C:\KEIL\C51\LIB\C51L.LIB (?C?CSTOPTR)
  C:\KEIL\C51\LIB\C51L.LIB (?C?IMUL)
  C:\KEIL\C51\LIB\C51L.LIB (?C?SIDIV)
  C:\KEIL\C51\LIB\C51L.LIB (?C?IILDX)
BL51 BANKED LINKER/LOCATER V6.22                                                      05/23/2018  10:43:45  PAGE 2


  C:\KEIL\C51\LIB\C51L.LIB (?C?LNEG)
  C:\KEIL\C51\LIB\C51L.LIB (?C?SLCMP)
  C:\KEIL\C51\LIB\C51L.LIB (?C?ULCMP)
  C:\KEIL\C51\LIB\C51L.LIB (?C?LLDCODE)
  C:\KEIL\C51\LIB\C51L.LIB (?C?LLDXDATA0)
  C:\KEIL\C51\LIB\C51L.LIB (?C?LLDCODE0)
  C:\KEIL\C51\LIB\C51L.LIB (?C?LSTXDATA)
  C:\KEIL\C51\LIB\C51L.LIB (?C?LSTKXDATA)
  C:\KEIL\C51\LIB\C51L.LIB (?C?PLDIXDATA)
  C:\KEIL\C51\LIB\C51L.LIB (?C?PSTXDATA)
  C:\KEIL\C51\LIB\C51L.LIB (?C?CCASE)
  C:\KEIL\C51\LIB\C51L.LIB (PUTCHAR)
  C:\KEIL\C51\LIB\C51L.LIB (STRCAT)
  C:\KEIL\C51\LIB\C51L.LIB (?C?STRCPY)
  C:\KEIL\C51\LIB\C51L.LIB (STRLEN)
  C:\KEIL\C51\LIB\C51L.LIB (?C?MEMSET)
  C:\KEIL\C51\LIB\C51L.LIB (?C?UIDIV)
  C:\KEIL\C51\LIB\C51L.LIB (?C?ILDIX)


LINK MAP OF MODULE:  Master (?C_STARTUP)


            TYPE    BASE      LENGTH    RELOCATION   SEGMENT NAME
            -----------------------------------------------------

            * * * * * * *   D A T A   M E M O R Y   * * * * * * *
            REG     0000H     0008H     ABSOLUTE     "REG BANK 0"
            DATA    0008H     0005H     UNIT         _DATA_GROUP_
                    000DH     0013H                  *** GAP ***
            BIT     0020H.0   0001H.1   UNIT         _BIT_GROUP_
            BIT     0021H.1   0000H.1   UNIT         ?BI?UART0_RINGBUFFER_LIB
            BIT     0021H.2   0000H.1   UNIT         ?BI?UART1
                    0021H.3   0000H.5                *** GAP ***
            IDATA   0022H     0001H     UNIT         ?STACK

            * * * * * * *  X D A T A   M E M O R Y  * * * * * * *
            XDATA   0000H     072CH     UNIT         _XDATA_GROUP_
            XDATA   072CH     0369H     UNIT         ?XD?DETECT_OBST
            XDATA   0A95H     0086H     UNIT         ?XD?LIEN_STRUCTURE_COMMANDE
            XDATA   0B1BH     0050H     UNIT         ?XD?UART0_RINGBUFFER_LIB
            XDATA   0B6BH     0050H     UNIT         ?XD?UART1
            XDATA   0BBBH     003DH     UNIT         ?XD?MAIN
            XDATA   0BF8H     0011H     UNIT         ?XD?_ITOS?FONCTIONS_COTE_SERIALIZER
            XDATA   0C09H     0002H     UNIT         ?XD?SERINCHAR_BIN?UART0_RINGBUFFER_LIB
            XDATA   0C0BH     0002H     UNIT         ?XD?SERINCHAR_BIN1?UART1

            * * * * * * *   C O D E   M E M O R Y   * * * * * * *
            CODE    0000H     0003H     ABSOLUTE     
            CODE    0003H     001DH     UNIT         ?PR?_TRUE_VIT?FONCTIONS_COTE_SERIALIZER
                    0020H     0003H                  *** GAP ***
            CODE    0023H     0003H     ABSOLUTE     
            CODE    0026H     0005H     UNIT         ?PR?ISR_TIMER2?MAIN
            CODE    002BH     0003H     ABSOLUTE     
            CODE    002EH     0043H     UNIT         ?PR?_TRAME_EMISE?TRANSMISSION_SPI
                    0071H     0002H                  *** GAP ***
            CODE    0073H     0003H     ABSOLUTE     
BL51 BANKED LINKER/LOCATER V6.22                                                      05/23/2018  10:43:45  PAGE 3


            CODE    0076H     0027H     UNIT         ?PR?PUTCHAR?PUTCHAR
            CODE    009DH     0004H     UNIT         ?PR?CFG_VREF?CONFIG_ADC
                    00A1H     0002H                  *** GAP ***
            CODE    00A3H     0003H     ABSOLUTE     
            CODE    00A6H     0A54H     UNIT         ?C?LIB_CODE
            CODE    0AFAH     07ADH     UNIT         ?PR?FONCTIONROUTAGE?LIEN_STRUCTURE_COMMANDE
            CODE    12A7H     05FBH     UNIT         ?PR?DETECT_OBST?DETECT_OBST
            CODE    18A2H     0530H     UNIT         ?PR?FORMATE_SERIALIZER?FONCTIONS_COTE_SERIALIZER
            CODE    1DD2H     04EEH     UNIT         ?CO?LIEN_STRUCTURE_COMMANDE
            CODE    22C0H     0483H     UNIT         ?PR?PRINTF?PRINTF
            CODE    2743H     0320H     UNIT         ?PR?_TRAITEMENT_M?MAIN
            CODE    2A63H     025BH     UNIT         ?PR?_TRAITEMENT_S?MAIN
            CODE    2CBEH     0239H     UNIT         ?PR?_TRAITEMENT_L?MAIN
            CODE    2EF7H     0238H     UNIT         ?PR?TRANSCODE_COMMANDE_TO_SERIALIZER?FONCTIONS_COTE_SERIALIZER
            CODE    312FH     0223H     UNIT         ?PR?_MESSAGE?MAIN
            CODE    3352H     021EH     UNIT         ?PR?_CONV?MAIN
            CODE    3570H     01E8H     UNIT         ?C_INITSEG
            CODE    3758H     01BDH     UNIT         ?PR?_TRAITEMENT_C?MAIN
            CODE    3915H     01B3H     UNIT         ?PR?_TRAITEMENT_G?MAIN
            CODE    3AC8H     017EH     UNIT         ?PR?MAIN?MAIN
            CODE    3C46H     0179H     UNIT         ?CO?MAIN
            CODE    3DBFH     0166H     UNIT         ?PR?_POW?POW
            CODE    3F25H     0159H     UNIT         ?PR?_TRAITEMENT_R?MAIN
            CODE    407EH     0153H     UNIT         ?PR?_TRAITEMENT_A?MAIN
            CODE    41D1H     012AH     UNIT         ?PR?_TRAITEMENT_D?MAIN
            CODE    42FBH     0129H     UNIT         ?PR?LOG?LOG
            CODE    4424H     0127H     UNIT         ?PR?_ITOS?FONCTIONS_COTE_SERIALIZER
            CODE    454BH     0123H     UNIT         ?PR?_TRUE_TICKS?FONCTIONS_COTE_SERIALIZER
            CODE    466EH     0122H     UNIT         ?PR?ATAN?ATAN
            CODE    4790H     011DH     UNIT         ?PR?DETECTION_AV_AR?DETECT_OBST
            CODE    48ADH     0114H     UNIT         ?PR?MES_DIST_AV?ULTRASON
            CODE    49C1H     0114H     UNIT         ?PR?MES_DIST_AR?ULTRASON
            CODE    4AD5H     00FCH     UNIT         ?PR?UART1_ISR?UART1
            CODE    4BD1H     00F8H     UNIT         ?PR?UART0_ISR?UART0_RINGBUFFER_LIB
            CODE    4CC9H     00EFH     UNIT         ?PR?_CEIL?CEIL
            CODE    4DB8H     00D2H     UNIT         ?PR?_CONVERSIONANGLE_POSITIF?MAIN
            CODE    4E8AH     00BFH     UNIT         ?PR?TEMPO_EMISS?LIEN_STRUCTURE_COMMANDE
            CODE    4F49H     00BCH     UNIT         ?PR?DETECTION_AV?DETECT_OBST
            CODE    5005H     00ABH     UNIT         ?PR?ROUTAGE?LIEN_STRUCTURE_COMMANDE
            CODE    50B0H     00AAH     UNIT         ?PR?_AFFICHAGE_AV_AR?DETECT_OBST
            CODE    515AH     00A3H     UNIT         ?PR?_CDE_SERVO_H?SERVOMOTEUR_HORIZONTAL
            CODE    51FDH     009AH     UNIT         ?PR?EXP?EXP
            CODE    5297H     0097H     UNIT         ?PR?COURANT_ADC?MESURE_COURANT
            CODE    532EH     008CH     UNIT         ?C_C51STARTUP
            CODE    53BAH     008BH     UNIT         ?PR?_TRAITEMENT_B?MAIN
            CODE    5445H     008BH     UNIT         ?PR?_SEROUTCHAR1?UART1
            CODE    54D0H     008AH     UNIT         ?PR?_SEROUTCHAR?UART0_RINGBUFFER_LIB
            CODE    555AH     0084H     UNIT         ?PR?ISR_TIMER3?MAIN
            CODE    55DEH     0082H     UNIT         ?PR?_TRAITEMENT_T?MAIN
            CODE    5660H     007DH     UNIT         ?PR?SERINCHAR_BIN?UART0_RINGBUFFER_LIB
            CODE    56DDH     007DH     UNIT         ?PR?SERINCHAR_BIN1?UART1
            CODE    575AH     007AH     UNIT         ?PR?_ECHANGE_TRAME?TRANSMISSION_SPI
            CODE    57D4H     0073H     UNIT         ?PR?_AFFICHAGE_AV?DETECT_OBST
            CODE    5847H     006BH     UNIT         ?PR?_STRCAT?STRCAT
            CODE    58B2H     0064H     UNIT         ?PR?SERINCHAR?UART0_RINGBUFFER_LIB
            CODE    5916H     0064H     UNIT         ?PR?SERINCHAR1?UART1
            CODE    597AH     005EH     UNIT         ?PR?_SEROUTSTRING?UART0_RINGBUFFER_LIB
BL51 BANKED LINKER/LOCATER V6.22                                                      05/23/2018  10:43:45  PAGE 4


            CODE    59D8H     005EH     UNIT         ?PR?_SEROUTSTRING1?UART1
            CODE    5A36H     005BH     UNIT         ?PR?INIT_SERIAL_BUFFER?UART0_RINGBUFFER_LIB
            CODE    5A91H     005BH     UNIT         ?PR?INIT_SERIAL_BUFFER1?UART1
            CODE    5AECH     0059H     UNIT         ?CO?FONCTIONS_COTE_SERIALIZER
            CODE    5B45H     0055H     UNIT         ?PR?_CONV_ANGLE_TICKS?FONCTIONS_COTE_SERIALIZER
            CODE    5B9AH     004BH     UNIT         ?PR?SON_SONORE?GENERATION_SON
            CODE    5BE5H     004AH     UNIT         ?PR?POINTEUR_LUM?ENCODAGE_POINTEUR_LUM
            CODE    5C2FH     0049H     UNIT         ?PR?_CONVERSIONCOORD_2?MAIN
            CODE    5C78H     0024H     UNIT         ?PR?_CONVERSIONCOORD?MAIN
            CODE    5C9CH     0024H     UNIT         ?PR?CONFIG_TIMER2?TIMERS
            CODE    5CC0H     0024H     UNIT         ?PR?CONFIG_TIMER3?TIMERS
            CODE    5CE4H     0023H     UNIT         ?PR?_CONV_DISTANCE_TICKS?FONCTIONS_COTE_SERIALIZER
            CODE    5D07H     001AH     UNIT         ?PR?OSCILLATOR_INIT?CONFIG_GLOBALE
            CODE    5D21H     0019H     UNIT         ?PR?GPIO_CONFIG?CONFIG_GLOBALE
            CODE    5D3AH     0015H     UNIT         ?PR?CONFIG_SPI_MASTER?CONFIG_SPI
            CODE    5D4FH     0015H     UNIT         ?PR?_STRLEN?STRLEN
            CODE    5D64H     0013H     UNIT         ?PR?CFG_ADC0?CONFIG_ADC
            CODE    5D77H     0013H     UNIT         ?PR?CFG_CLOCK_UART?UART0_RINGBUFFER_LIB
            CODE    5D8AH     0012H     UNIT         ?PR?TRAITEMENT_E?MAIN
            CODE    5D9CH     0012H     UNIT         ?PR?CFG_UART0_MODE1?UART0_RINGBUFFER_LIB
            CODE    5DAEH     0011H     UNIT         ?CO?DETECT_OBST
            CODE    5DBFH     0010H     UNIT         ?PR?_DEBUT_TRAME?TRANSMISSION_SPI
            CODE    5DCFH     0010H     UNIT         ?PR?CFG_UART1?UART1
            CODE    5DDFH     000DH     UNIT         ?PR?TRAITEMENT_Q?MAIN
            CODE    5DECH     000DH     UNIT         ?PR?TRAME_RECUE?TRANSMISSION_SPI
            CODE    5DF9H     000CH     UNIT         ?PR?INIT_DEVICE?CONFIG_GLOBALE
            CODE    5E05H     000BH     UNIT         ?PR?CONFIG_TIMER0?TIMERS
            CODE    5E10H     000AH     UNIT         ?PR?ACQ_ADC?CONFIG_ADC
            CODE    5E1AH     000AH     UNIT         ?PR?INITIALISATION_TIMER0?TIMERS
            CODE    5E24H     000AH     UNIT         ?PR?FIN_TRAME?TRANSMISSION_SPI
            CODE    5E2EH     0007H     UNIT         ?PR?DISABLE_WDT?CONFIG_GLOBALE
            CODE    5E35H     0007H     UNIT         ?PR?_ECHANGE_OCTET?TRANSMISSION_SPI
            CODE    5E3CH     0004H     UNIT         ?PR?RESET_SRC?CONFIG_GLOBALE
            CODE    5E40H     0004H     UNIT         ?CO?GENERATION_SON
            CODE    5E44H     0004H     UNIT         ?CO?ENCODAGE_POINTEUR_LUM



OVERLAY MAP OF MODULE:   Master (?C_STARTUP)


SEGMENT                                             BIT_GROUP          DATA_GROUP          XDATA_GROUP
  +--> CALLED SEGMENT                            START    LENGTH     START    LENGTH     START    LENGTH
--------------------------------------------------------------------------------------------------------
?C_C51STARTUP                                    -----    -----      -----    -----      -----    -----
  +--> ?PR?MAIN?MAIN
  +--> ?C_INITSEG

?PR?MAIN?MAIN                                    -----    -----      -----    -----      0000H    009CH
  +--> ?CO?MAIN
  +--> ?PR?INIT_DEVICE?CONFIG_GLOBALE
  +--> ?PR?CONFIG_TIMER2?TIMERS
  +--> ?PR?CONFIG_TIMER0?TIMERS
  +--> ?PR?CONFIG_TIMER3?TIMERS
  +--> ?PR?CONFIG_SPI_MASTER?CONFIG_SPI
  +--> ?PR?CFG_VREF?CONFIG_ADC
  +--> ?PR?CFG_ADC0?CONFIG_ADC
BL51 BANKED LINKER/LOCATER V6.22                                                      05/23/2018  10:43:45  PAGE 5


  +--> ?PR?CFG_CLOCK_UART?UART0_RINGBUFFER_LIB
  +--> ?PR?CFG_UART0_MODE1?UART0_RINGBUFFER_LIB
  +--> ?PR?INIT_SERIAL_BUFFER?UART0_RINGBUFF...
  +--> ?PR?INIT_SERIAL_BUFFER1?UART1
  +--> ?PR?CFG_UART1?UART1
  +--> ?PR?_SEROUTSTRING?UART0_RINGBUFFER_LIB
  +--> ?PR?_STRLEN?STRLEN
  +--> ?PR?_MESSAGE?MAIN
  +--> ?PR?FONCTIONROUTAGE?LIEN_STRUCTURE_CO...

?PR?INIT_DEVICE?CONFIG_GLOBALE                   -----    -----      -----    -----      -----    -----
  +--> ?PR?RESET_SRC?CONFIG_GLOBALE
  +--> ?PR?DISABLE_WDT?CONFIG_GLOBALE
  +--> ?PR?OSCILLATOR_INIT?CONFIG_GLOBALE
  +--> ?PR?GPIO_CONFIG?CONFIG_GLOBALE

?PR?CONFIG_TIMER3?TIMERS                         -----    -----      -----    -----      -----    -----
  +--> ?PR?_CEIL?CEIL

?PR?_CEIL?CEIL                                   -----    -----      -----    -----      06E0H    0008H

?PR?_SEROUTSTRING?UART0_RINGBUFFER_LIB           -----    -----      -----    -----      06A6H    0005H
  +--> ?PR?_STRLEN?STRLEN
  +--> ?PR?_SEROUTCHAR?UART0_RINGBUFFER_LIB

?PR?_MESSAGE?MAIN                                -----    -----      -----    -----      009CH    0029H
  +--> ?PR?_TRAITEMENT_A?MAIN
  +--> ?PR?_TRAITEMENT_T?MAIN
  +--> ?PR?_TRAITEMENT_D?MAIN
  +--> ?PR?TRAITEMENT_E?MAIN
  +--> ?PR?TRAITEMENT_Q?MAIN
  +--> ?PR?_TRAITEMENT_L?MAIN
  +--> ?PR?_TRAITEMENT_M?MAIN
  +--> ?PR?_TRAITEMENT_B?MAIN
  +--> ?PR?_TRAITEMENT_S?MAIN
  +--> ?PR?_TRAITEMENT_G?MAIN
  +--> ?PR?_TRAITEMENT_R?MAIN
  +--> ?PR?_TRAITEMENT_C?MAIN

?PR?_TRAITEMENT_A?MAIN                           -----    -----      -----    -----      00C5H    002EH
  +--> ?PR?_CONVERSIONANGLE_POSITIF?MAIN
  +--> ?CO?MAIN

?PR?_CONVERSIONANGLE_POSITIF?MAIN                -----    -----      -----    -----      00F5H    0008H

?PR?_TRAITEMENT_T?MAIN                           -----    -----      -----    -----      00C5H    002CH
  +--> ?PR?_CONVERSIONANGLE_POSITIF?MAIN
  +--> ?CO?MAIN

?PR?_TRAITEMENT_D?MAIN                           -----    -----      -----    -----      00C5H    0029H
  +--> ?CO?MAIN

?PR?TRAITEMENT_E?MAIN                            -----    -----      -----    -----      00C5H    0026H

?PR?TRAITEMENT_Q?MAIN                            -----    -----      -----    -----      00C5H    0026H

?PR?_TRAITEMENT_L?MAIN                           -----    -----      -----    -----      00C5H    002FH
BL51 BANKED LINKER/LOCATER V6.22                                                      05/23/2018  10:43:45  PAGE 6


  +--> ?PR?_CONVERSIONCOORD_2?MAIN

?PR?_CONVERSIONCOORD_2?MAIN                      -----    -----      -----    -----      00F4H    0002H

?PR?_TRAITEMENT_M?MAIN                           -----    -----      -----    -----      00C5H    002EH
  +--> ?PR?_CONVERSIONCOORD?MAIN

?PR?_TRAITEMENT_B?MAIN                           -----    -----      -----    -----      00C5H    002CH
  +--> ?PR?_CONVERSIONANGLE_POSITIF?MAIN

?PR?_TRAITEMENT_S?MAIN                           -----    -----      -----    -----      00C5H    0031H
  +--> ?PR?_CONVERSIONCOORD?MAIN

?PR?_TRAITEMENT_G?MAIN                           -----    -----      -----    -----      00C5H    0035H
  +--> ?PR?_STRLEN?STRLEN
  +--> ?PR?_CONV?MAIN

?PR?_CONV?MAIN                                   -----    -----      -----    -----      00FAH    000FH
  +--> ?PR?_POW?POW
  +--> ?PR?_CEIL?CEIL

?PR?_POW?POW                                     -----    -----      -----    -----      06A6H    000AH
  +--> ?PR?LOG?LOG
  +--> ?PR?EXP?EXP

?PR?LOG?LOG                                      0020H.0  0000H.1    -----    -----      06B0H    0004H

?PR?_TRAITEMENT_R?MAIN                           -----    -----      -----    -----      00C5H    0030H
  +--> ?PR?_CONVERSIONANGLE_POSITIF?MAIN

?PR?_TRAITEMENT_C?MAIN                           -----    -----      -----    -----      00C5H    0030H
  +--> ?PR?_CONVERSIONANGLE_POSITIF?MAIN

?PR?FONCTIONROUTAGE?LIEN_STRUCTURE_CO...         -----    -----      -----    -----      009CH    060AH
  +--> ?CO?LIEN_STRUCTURE_COMMANDE
  +--> ?PR?ROUTAGE?LIEN_STRUCTURE_COMMANDE
  +--> ?PR?_CDE_SERVO_H?SERVOMOTEUR_HORIZONTAL
  +--> ?PR?_SEROUTSTRING?UART0_RINGBUFFER_LIB
  +--> ?PR?_STRLEN?STRLEN
  +--> ?PR?_STRCAT?STRCAT
  +--> ?PR?_ECHANGE_TRAME?TRANSMISSION_SPI
  +--> ?PR?TEMPO_EMISS?LIEN_STRUCTURE_COMMANDE
  +--> ?PR?TRAME_RECUE?TRANSMISSION_SPI
  +--> ?PR?PRINTF?PRINTF
  +--> ?PR?ATAN?ATAN
  +--> ?PR?_POW?POW
  +--> ?PR?_CEIL?CEIL
  +--> ?PR?TRANSCODE_COMMANDE_TO_SERIALIZER?...
  +--> ?PR?FORMATE_SERIALIZER?FONCTIONS_COTE...
  +--> ?PR?_SEROUTSTRING1?UART1
  +--> ?PR?SERINCHAR1?UART1
  +--> ?PR?DETECT_OBST?DETECT_OBST
  +--> ?PR?SON_SONORE?GENERATION_SON
  +--> ?PR?POINTEUR_LUM?ENCODAGE_POINTEUR_LUM

?PR?ROUTAGE?LIEN_STRUCTURE_COMMANDE              -----    -----      -----    -----      06A6H    0029H

BL51 BANKED LINKER/LOCATER V6.22                                                      05/23/2018  10:43:45  PAGE 7


?PR?_CDE_SERVO_H?SERVOMOTEUR_HORIZONTAL          -----    -----      -----    -----      06CCH    0008H
  +--> ?PR?_CEIL?CEIL

?PR?_STRCAT?STRCAT                               -----    -----      -----    -----      06FBH    0009H

?PR?_ECHANGE_TRAME?TRANSMISSION_SPI              -----    -----      -----    -----      06D0H    000BH
  +--> ?PR?_DEBUT_TRAME?TRANSMISSION_SPI
  +--> ?PR?_ECHANGE_OCTET?TRANSMISSION_SPI
  +--> ?PR?FIN_TRAME?TRANSMISSION_SPI

?PR?_DEBUT_TRAME?TRANSMISSION_SPI                -----    -----      -----    -----      06DBH    0001H
  +--> ?PR?_TRAME_EMISE?TRANSMISSION_SPI

?PR?_TRAME_EMISE?TRANSMISSION_SPI                -----    -----      -----    -----      06DCH    0003H

?PR?_ECHANGE_OCTET?TRANSMISSION_SPI              -----    -----      -----    -----      -----    -----
  +--> ?PR?_TRAME_EMISE?TRANSMISSION_SPI
  +--> ?PR?TRAME_RECUE?TRANSMISSION_SPI

?PR?TRAME_RECUE?TRANSMISSION_SPI                 -----    -----      -----    -----      06DBH    0001H
  +--> ?PR?_TRAME_EMISE?TRANSMISSION_SPI

?PR?FIN_TRAME?TRANSMISSION_SPI                   -----    -----      -----    -----      -----    -----
  +--> ?PR?_TRAME_EMISE?TRANSMISSION_SPI

?PR?TEMPO_EMISS?LIEN_STRUCTURE_COMMANDE          -----    -----      -----    -----      06D0H    0002H

?PR?PRINTF?PRINTF                                0020H.0  0001H.1    0008H    0005H      06F2H    0030H
  +--> ?PR?PUTCHAR?PUTCHAR

?PR?ATAN?ATAN                                    0020H.0  0000H.2    -----    -----      06A6H    0004H

?PR?TRANSCODE_COMMANDE_TO_SERIALIZER?...         -----    -----      -----    -----      06A6H    0036H
  +--> ?PR?_CONV_ANGLE_TICKS?FONCTIONS_COTE_...
  +--> ?PR?_CONV_DISTANCE_TICKS?FONCTIONS_CO...

?PR?_CONV_ANGLE_TICKS?FONCTIONS_COTE_...         -----    -----      -----    -----      06DCH    0004H
  +--> ?PR?_CEIL?CEIL

?PR?_CONV_DISTANCE_TICKS?FONCTIONS_CO...         -----    -----      -----    -----      -----    -----
  +--> ?PR?_CEIL?CEIL

?PR?FORMATE_SERIALIZER?FONCTIONS_COTE...         -----    -----      -----    -----      06A6H    001BH
  +--> ?CO?FONCTIONS_COTE_SERIALIZER
  +--> ?PR?_TRUE_VIT?FONCTIONS_COTE_SERIALIZER
  +--> ?PR?PRINTF?PRINTF
  +--> ?PR?_STRCAT?STRCAT
  +--> ?PR?_TRUE_TICKS?FONCTIONS_COTE_SERIAL...

?PR?_TRUE_TICKS?FONCTIONS_COTE_SERIAL...         -----    -----      -----    -----      06C1H    000BH
  +--> ?CO?FONCTIONS_COTE_SERIALIZER
  +--> ?PR?PRINTF?PRINTF
  +--> ?PR?_STRCAT?STRCAT
  +--> ?PR?_STRLEN?STRLEN

?PR?_SEROUTSTRING1?UART1                         -----    -----      -----    -----      06A6H    0005H
  +--> ?PR?_STRLEN?STRLEN
BL51 BANKED LINKER/LOCATER V6.22                                                      05/23/2018  10:43:45  PAGE 8


  +--> ?PR?_SEROUTCHAR1?UART1

?PR?DETECT_OBST?DETECT_OBST                      -----    -----      -----    -----      06A6H    0026H
  +--> ?PR?DETECTION_AV?DETECT_OBST
  +--> ?PR?DETECTION_AV_AR?DETECT_OBST
  +--> ?PR?_CDE_SERVO_H?SERVOMOTEUR_HORIZONTAL
  +--> ?CO?DETECT_OBST
  +--> ?PR?PRINTF?PRINTF
  +--> ?PR?_AFFICHAGE_AV?DETECT_OBST

?PR?DETECTION_AV?DETECT_OBST                     -----    -----      -----    -----      06CCH    0026H
  +--> ?PR?MES_DIST_AV?ULTRASON
  +--> ?CO?DETECT_OBST
  +--> ?PR?PRINTF?PRINTF
  +--> ?PR?_AFFICHAGE_AV?DETECT_OBST

?PR?MES_DIST_AV?ULTRASON                         -----    -----      -----    -----      06F2H    0012H
  +--> ?PR?INITIALISATION_TIMER0?TIMERS

?PR?_AFFICHAGE_AV?DETECT_OBST                    -----    -----      -----    -----      06F2H    0006H
  +--> ?PR?_STRCAT?STRCAT
  +--> ?CO?DETECT_OBST

?PR?DETECTION_AV_AR?DETECT_OBST                  -----    -----      -----    -----      06CCH    0026H
  +--> ?PR?MES_DIST_AV?ULTRASON
  +--> ?PR?MES_DIST_AR?ULTRASON
  +--> ?CO?DETECT_OBST
  +--> ?PR?PRINTF?PRINTF
  +--> ?PR?_AFFICHAGE_AV_AR?DETECT_OBST

?PR?MES_DIST_AR?ULTRASON                         -----    -----      -----    -----      06F2H    0012H
  +--> ?PR?INITIALISATION_TIMER0?TIMERS

?PR?_AFFICHAGE_AV_AR?DETECT_OBST                 -----    -----      -----    -----      06F2H    0009H
  +--> ?PR?_STRCAT?STRCAT
  +--> ?CO?DETECT_OBST

?PR?SON_SONORE?GENERATION_SON                    -----    -----      -----    -----      06A6H    002AH
  +--> ?CO?GENERATION_SON
  +--> ?PR?_ECHANGE_TRAME?TRANSMISSION_SPI
  +--> ?PR?TEMPO_EMISS?LIEN_STRUCTURE_COMMANDE

?PR?POINTEUR_LUM?ENCODAGE_POINTEUR_LUM           -----    -----      -----    -----      06A6H    002AH
  +--> ?CO?ENCODAGE_POINTEUR_LUM
  +--> ?PR?_ECHANGE_TRAME?TRANSMISSION_SPI
  +--> ?PR?TEMPO_EMISS?LIEN_STRUCTURE_COMMANDE

*** NEW ROOT ***************************************************

?PR?ISR_TIMER3?MAIN                              -----    -----      -----    -----      -----    -----
  +--> ?PR?COURANT_ADC?MESURE_COURANT

?PR?COURANT_ADC?MESURE_COURANT                   -----    -----      -----    -----      0722H    000AH
  +--> ?PR?ACQ_ADC?CONFIG_ADC



BL51 BANKED LINKER/LOCATER V6.22                                                      05/23/2018  10:43:45  PAGE 9


SYMBOL TABLE OF MODULE:  Master (?C_STARTUP)

  VALUE           TYPE          NAME
  ----------------------------------

  -------         MODULE        ?C_STARTUP
  C:532EH         SEGMENT       ?C_C51STARTUP
  I:0022H         SEGMENT       ?STACK
  C:0000H         PUBLIC        ?C_STARTUP
  D:00E0H         SYMBOL        ACC
  D:00F0H         SYMBOL        B
  D:0083H         SYMBOL        DPH
  D:0082H         SYMBOL        DPL
  N:0000H         SYMBOL        IBPSTACK
  N:0100H         SYMBOL        IBPSTACKTOP
  N:0080H         SYMBOL        IDATALEN
  C:5331H         SYMBOL        IDATALOOP
  N:0000H         SYMBOL        PBPSTACK
  N:0100H         SYMBOL        PBPSTACKTOP
  N:0000H         SYMBOL        PDATALEN
  N:0000H         SYMBOL        PDATASTART
  N:0000H         SYMBOL        PPAGE
  N:0000H         SYMBOL        PPAGEENABLE
  D:00A0H         SYMBOL        PPAGE_SFR
  D:0081H         SYMBOL        SP
  C:532EH         SYMBOL        STARTUP1
  N:0000H         SYMBOL        XBPSTACK
  N:0000H         SYMBOL        XBPSTACKTOP
  N:0000H         SYMBOL        XDATALEN
  N:0000H         SYMBOL        XDATASTART
  C:0000H         LINE#         126
  C:532EH         LINE#         133
  C:5330H         LINE#         134
  C:5331H         LINE#         135
  C:5332H         LINE#         136
  C:5334H         LINE#         185
  C:5337H         LINE#         196
  -------         ENDMOD        ?C_STARTUP

  -------         MODULE        CONFIG_ADC
  C:0000H         SYMBOL        _ICE_DUMMY_
  C:5E10H         PUBLIC        ACQ_ADC
  D:00BCH         PUBLIC        ADC0CF
  D:00E8H         PUBLIC        ADC0CN
  D:00A8H         PUBLIC        IE
  D:00D8H         PUBLIC        PCA0CN
  D:00B8H         PUBLIC        IP
  D:00D1H         PUBLIC        REF0CN
  D:00BAH         PUBLIC        AMX0CF
  B:00E8H.5       PUBLIC        AD0INT
  D:00C0H         PUBLIC        SMB0CN
  C:5D64H         PUBLIC        CFG_ADC0
  D:00F8H         PUBLIC        SPI0CN
  D:0088H         PUBLIC        TCON
  D:00BBH         PUBLIC        AMX0SL
  D:00BFH         PUBLIC        ADC0H
  B:00E8H.7       PUBLIC        AD0EN
BL51 BANKED LINKER/LOCATER V6.22                                                      05/23/2018  10:43:45  PAGE 10


  D:0098H         PUBLIC        SCON0
  C:009DH         PUBLIC        CFG_VREF
  D:00C8H         PUBLIC        T2CON
  B:00E8H.0       PUBLIC        AD0LJST
  B:00E8H.2       PUBLIC        AD0CM0
  B:00E8H.3       PUBLIC        AD0CM1
  B:00E8H.4       PUBLIC        AD0BUSY
  D:00D0H         PUBLIC        PSW
  -------         PROC          CFG_VREF
  C:009DH         LINE#         9
  C:009DH         LINE#         10
  C:00A0H         LINE#         11
  -------         ENDPROC       CFG_VREF
  -------         PROC          CFG_ADC0
  C:5D64H         LINE#         13
  C:5D64H         LINE#         15
  C:5D66H         LINE#         17
  C:5D69H         LINE#         18
  C:5D69H         LINE#         19
  C:5D6CH         LINE#         20
  C:5D6CH         LINE#         22
  C:5D6EH         LINE#         25
  C:5D70H         LINE#         26
  C:5D72H         LINE#         28
  C:5D74H         LINE#         30
  C:5D76H         LINE#         31
  -------         ENDPROC       CFG_ADC0
  -------         PROC          ACQ_ADC
  C:5E10H         LINE#         34
  C:5E10H         LINE#         35
  C:5E12H         LINE#         36
  C:5E14H         LINE#         37
  C:5E17H         LINE#         38
  C:5E19H         LINE#         39
  -------         ENDPROC       ACQ_ADC
  -------         ENDMOD        CONFIG_ADC

  -------         MODULE        CONFIG_GLOBALE
  C:0000H         SYMBOL        _ICE_DUMMY_
  D:0080H         PUBLIC        P0
  D:00FFH         PUBLIC        WDTCN
  D:00A0H         PUBLIC        P2
  C:5E2EH         PUBLIC        Disable_WDT
  D:00E8H         PUBLIC        ADC0CN
  D:00A4H         PUBLIC        P0MDOUT
  D:00A8H         PUBLIC        IE
  D:00A6H         PUBLIC        P2MDOUT
  D:00D8H         PUBLIC        PCA0CN
  D:00B8H         PUBLIC        IP
  C:5D07H         PUBLIC        Oscillator_Init
  D:00E1H         PUBLIC        XBR0
  D:00E3H         PUBLIC        XBR2
  D:00C0H         PUBLIC        SMB0CN
  D:00F8H         PUBLIC        SPI0CN
  C:5E3CH         PUBLIC        Reset_src
  D:0088H         PUBLIC        TCON
  D:00B2H         PUBLIC        OSCICN
BL51 BANKED LINKER/LOCATER V6.22                                                      05/23/2018  10:43:45  PAGE 11


  C:5DF9H         PUBLIC        Init_Device
  D:00B1H         PUBLIC        OSCXCN
  D:00EFH         PUBLIC        RSTSRC
  D:0098H         PUBLIC        SCON0
  D:00C8H         PUBLIC        T2CON
  C:5D21H         PUBLIC        GPIO_Config
  D:00D0H         PUBLIC        PSW
  -------         PROC          INIT_DEVICE
  C:5DF9H         LINE#         7
  C:5DF9H         LINE#         8
  C:5DFCH         LINE#         9
  C:5DFFH         LINE#         10
  C:5E02H         LINE#         11
  -------         ENDPROC       INIT_DEVICE
  -------         PROC          OSCILLATOR_INIT
  -------         DO            
  D:0006H         SYMBOL        i
  -------         ENDDO         
  C:5D07H         LINE#         14
  C:5D07H         LINE#         18
  C:5D0AH         LINE#         19
  C:5D18H         LINE#         20
  C:5D1DH         LINE#         21
  C:5D20H         LINE#         22
  -------         ENDPROC       OSCILLATOR_INIT
  -------         PROC          RESET_SRC
  C:5E3CH         LINE#         24
  C:5E3CH         LINE#         26
  C:5E3FH         LINE#         27
  -------         ENDPROC       RESET_SRC
  -------         PROC          DISABLE_WDT
  C:5E2EH         LINE#         29
  C:5E2EH         LINE#         31
  C:5E31H         LINE#         32
  C:5E34H         LINE#         33
  -------         ENDPROC       DISABLE_WDT
  -------         PROC          GPIO_CONFIG
  C:5D21H         LINE#         36
  C:5D21H         LINE#         39
  C:5D24H         LINE#         40
  C:5D27H         LINE#         43
  C:5D2AH         LINE#         44
  C:5D2DH         LINE#         51
  C:5D30H         LINE#         52
  C:5D33H         LINE#         54
  C:5D36H         LINE#         55
  C:5D39H         LINE#         59
  -------         ENDPROC       GPIO_CONFIG
  -------         ENDMOD        CONFIG_GLOBALE

  -------         MODULE        CONFIG_SPI
  C:0000H         SYMBOL        _ICE_DUMMY_
  D:009DH         PUBLIC        SPI0CKR
  D:0080H         PUBLIC        P0
  B:00F8H.0       PUBLIC        SPIEN
  D:0090H         PUBLIC        P1
  D:00A0H         PUBLIC        P2
BL51 BANKED LINKER/LOCATER V6.22                                                      05/23/2018  10:43:45  PAGE 12


  D:00B0H         PUBLIC        P3
  B:00F8H.1       PUBLIC        MSTEN
  D:00E8H         PUBLIC        ADC0CN
  D:00A8H         PUBLIC        IE
  D:00D8H         PUBLIC        PCA0CN
  D:00B8H         PUBLIC        IP
  D:00C0H         PUBLIC        SMB0CN
  B:00F8H.5       PUBLIC        MODF
  D:00F8H         PUBLIC        SPI0CN
  B:00F8H.7       PUBLIC        SPIF
  D:0088H         PUBLIC        TCON
  B:00F8H.6       PUBLIC        WCOL
  C:5D3AH         PUBLIC        Config_SPI_MASTER
  D:0098H         PUBLIC        SCON0
  D:00C8H         PUBLIC        T2CON
  D:009AH         PUBLIC        SPI0CFG
  B:00F8H.4       PUBLIC        RXOVRN
  D:00D0H         PUBLIC        PSW
  -------         PROC          CONFIG_SPI_MASTER
  C:5D3AH         LINE#         10
  C:5D3AH         LINE#         12
  C:5D3CH         LINE#         13
  C:5D3EH         LINE#         14
  C:5D40H         LINE#         15
  C:5D42H         LINE#         16
  C:5D44H         LINE#         17
  C:5D46H         LINE#         20
  C:5D49H         LINE#         22
  C:5D4CH         LINE#         24
  C:5D4EH         LINE#         25
  -------         ENDPROC       CONFIG_SPI_MASTER
  -------         ENDMOD        CONFIG_SPI

  -------         MODULE        DETECT_OBST
  C:0000H         SYMBOL        _ICE_DUMMY_
  D:00E8H         PUBLIC        ADC0CN
  D:00A8H         PUBLIC        IE
  X:072CH         PUBLIC        affichage
  X:082CH         PUBLIC        detection_arriere
  X:0830H         PUBLIC        tab_angles
  D:00D8H         PUBLIC        PCA0CN
  D:00B8H         PUBLIC        IP
  X:0894H         PUBLIC        obstacle_arriere
  D:00C0H         PUBLIC        SMB0CN
  X:0899H         PUBLIC        information
  D:00F8H         PUBLIC        SPI0CN
  X:08B3H         PUBLIC        angle_min
  C:47A3H         PUBLIC        detection_AV_AR
  D:0088H         PUBLIC        TCON
  X:08B5H         PUBLIC        min_AR
  X:08B7H         PUBLIC        min_AV
  C:4F5CH         PUBLIC        detection_AV
  X:08B9H         PUBLIC        tab_dist_AR
  X:0981H         PUBLIC        detection_avant
  X:0985H         PUBLIC        min
  X:0987H         PUBLIC        tab_dist_AV
  X:0A4FH         PUBLIC        dist_min_ascii
BL51 BANKED LINKER/LOCATER V6.22                                                      05/23/2018  10:43:45  PAGE 13


  X:0A54H         PUBLIC        dist_min_AR
  X:0A68H         PUBLIC        obstacle_avant
  X:0A6DH         PUBLIC        dist_min_AV
  C:12A7H         PUBLIC        Detect_Obst
  X:0A81H         PUBLIC        dist_min
  C:50B0H         PUBLIC        _Affichage_AV_AR
  X:0A85H         PUBLIC        c
  D:0098H         PUBLIC        SCON0
  D:00C8H         PUBLIC        T2CON
  X:0A87H         PUBLIC        j
  X:0A89H         PUBLIC        k
  C:57D4H         PUBLIC        _Affichage_AV
  X:0A8BH         PUBLIC        angle_ascii
  X:0A90H         PUBLIC        z
  D:00D0H         PUBLIC        PSW
  X:0A92H         PUBLIC        Angle_servo
  -------         PROC          _AFFICHAGE_AV
  X:06F2H         SYMBOL        obst_AV
  X:06F5H         SYMBOL        Serv
  C:57D4H         LINE#         39
  C:57DFH         LINE#         41
  C:57FBH         LINE#         42
  C:5812H         LINE#         43
  C:5830H         LINE#         44
  -------         ENDPROC       _AFFICHAGE_AV
  -------         PROC          _AFFICHAGE_AV_AR
  X:06F2H         SYMBOL        obst_AV
  X:06F5H         SYMBOL        obst_AR
  X:06F8H         SYMBOL        Serv
  C:50B0H         LINE#         48
  C:50BBH         LINE#         50
  C:50D9H         LINE#         51
  C:50F0H         LINE#         52
  C:510EH         LINE#         53
  C:5125H         LINE#         54
  C:5143H         LINE#         55
  -------         ENDPROC       _AFFICHAGE_AV_AR
  C:4F4BH         SYMBOL        L?0091
  -------         PROC          L?0090
  -------         ENDPROC       L?0090
  C:4F4BH         SYMBOL        L?0091
  -------         PROC          DETECTION_AV
  X:06CCH         SYMBOL        com
  C:4F5CH         LINE#         64
  C:4F5CH         LINE#         66
  C:4F65H         LINE#         67
  C:4F7DH         LINE#         68
  C:4F83H         LINE#         69
  C:4F83H         LINE#         70
  C:4F8BH         LINE#         71
  C:4FB6H         LINE#         72
  C:4FDCH         LINE#         74
  C:4FF3H         LINE#         75
  C:4FF3H         LINE#         76
  C:5004H         LINE#         77
  -------         ENDPROC       DETECTION_AV
  C:4790H         SYMBOL        L?0089
BL51 BANKED LINKER/LOCATER V6.22                                                      05/23/2018  10:43:45  PAGE 14


  -------         PROC          L?0088
  -------         ENDPROC       L?0088
  C:4790H         SYMBOL        L?0089
  -------         PROC          DETECTION_AV_AR
  X:06CCH         SYMBOL        com
  C:47A3H         LINE#         80
  C:47A3H         LINE#         81
  C:47ACH         LINE#         82
  C:47B5H         LINE#         83
  C:47CDH         LINE#         84
  C:47D3H         LINE#         85
  C:47D3H         LINE#         86
  C:47EBH         LINE#         87
  C:47F1H         LINE#         88
  C:47F1H         LINE#         89
  C:47FCH         LINE#         90
  C:4827H         LINE#         91
  C:4852H         LINE#         92
  C:4878H         LINE#         94
  C:489BH         LINE#         95
  C:489BH         LINE#         97
  C:48ACH         LINE#         98
  -------         ENDPROC       DETECTION_AV_AR
  -------         PROC          DETECT_OBST
  X:06A6H         SYMBOL        com
  C:12A7H         LINE#         102
  C:12A7H         LINE#         105
  C:12BCH         LINE#         106
  C:12BCH         LINE#         107
  C:12C2H         LINE#         108
  C:12C6H         LINE#         109
  C:12C9H         LINE#         110
  C:12C9H         LINE#         111
  C:12CCH         LINE#         112
  C:12CCH         LINE#         113
  C:12CFH         LINE#         115
  C:12CFH         LINE#         116
  C:12D7H         LINE#         117
  C:12F6H         LINE#         118
  C:1301H         LINE#         119
  C:1322H         LINE#         120
  C:1325H         LINE#         121
  C:133BH         LINE#         122
  C:133BH         LINE#         123
  C:133BH         LINE#         124
  C:135AH         LINE#         125
  C:1365H         LINE#         126
  C:1386H         LINE#         127
  C:1389H         LINE#         128
  C:139FH         LINE#         129
  C:139FH         LINE#         130
  C:139FH         LINE#         135
  C:139FH         LINE#         136
  C:13AAH         LINE#         137
  C:13C9H         LINE#         138
  C:13ECH         LINE#         139
  C:140DH         LINE#         140
BL51 BANKED LINKER/LOCATER V6.22                                                      05/23/2018  10:43:45  PAGE 15


  C:1442H         LINE#         141
  C:1450H         LINE#         142
  C:1467H         LINE#         143
  C:1493H         LINE#         144
  C:14F0H         LINE#         145
  C:14FFH         LINE#         146
  C:14FFH         LINE#         147
  C:1510H         LINE#         148
  C:153DH         LINE#         149
  C:155AH         LINE#         153
  C:155AH         LINE#         154
  C:155AH         LINE#         156
  C:155AH         LINE#         158
  C:155DH         LINE#         159
  C:155DH         LINE#         160
  C:157CH         LINE#         161
  C:159FH         LINE#         162
  C:15C0H         LINE#         163
  C:15F5H         LINE#         164
  C:1603H         LINE#         165
  C:161AH         LINE#         166
  C:1646H         LINE#         167
  C:16A3H         LINE#         168
  C:16B2H         LINE#         169
  C:16B2H         LINE#         170
  C:16C3H         LINE#         171
  C:16EDH         LINE#         172
  C:1719H         LINE#         173
  C:1776H         LINE#         174
  C:1785H         LINE#         175
  C:1785H         LINE#         176
  C:1796H         LINE#         177
  C:17C0H         LINE#         179
  C:17CEH         LINE#         180
  C:17E7H         LINE#         181
  C:17E7H         LINE#         182
  C:17E9H         LINE#         183
  C:17E9H         LINE#         184
  C:1816H         LINE#         185
  C:1833H         LINE#         186
  C:1833H         LINE#         188
  C:185EH         LINE#         189
  C:1884H         LINE#         191
  C:189BH         LINE#         192
  C:189BH         LINE#         193
  C:189BH         LINE#         194
  C:189BH         LINE#         196
  C:18A1H         LINE#         197
  -------         ENDPROC       DETECT_OBST
  -------         ENDMOD        DETECT_OBST

  -------         MODULE        FONCTIONS_COTE_SERIALIZER
  C:0000H         SYMBOL        _ICE_DUMMY_
  D:00E8H         PUBLIC        ADC0CN
  D:00A8H         PUBLIC        IE
  C:18A2H         PUBLIC        formate_serializer
  D:00D8H         PUBLIC        PCA0CN
BL51 BANKED LINKER/LOCATER V6.22                                                      05/23/2018  10:43:45  PAGE 16


  D:00B8H         PUBLIC        IP
  C:5B62H         PUBLIC        _conv_angle_ticks
  D:00C0H         PUBLIC        SMB0CN
  D:00F8H         PUBLIC        SPI0CN
  D:0088H         PUBLIC        TCON
  C:4424H         PUBLIC        _itos
  C:5B41H         SYMBOL        _?ix1000
  C:4571H         PUBLIC        _true_ticks
  C:2EF7H         PUBLIC        transcode_commande_to_serializer
  D:0098H         PUBLIC        SCON0
  D:00C8H         PUBLIC        T2CON
  C:5CEDH         PUBLIC        _conv_distance_ticks
  C:0003H         PUBLIC        _true_vit
  D:00D0H         PUBLIC        PSW
  -------         PROC          L?0091
  -------         ENDPROC       L?0091
  -------         PROC          _CONV_DISTANCE_TICKS
  D:0006H         SYMBOL        d
  -------         DO            
  D:0006H         SYMBOL        ret
  -------         ENDDO         
  C:5CEDH         LINE#         40
  C:5CEDH         LINE#         41
  C:5D06H         LINE#         42
  C:5D06H         LINE#         43
  -------         ENDPROC       _CONV_DISTANCE_TICKS
  -------         PROC          L?0090
  -------         ENDPROC       L?0090
  -------         PROC          _CONV_ANGLE_TICKS
  D:0006H         SYMBOL        angle
  -------         DO            
  D:0006H         SYMBOL        ret
  X:06DCH         SYMBOL        a
  -------         ENDDO         
  C:5B62H         LINE#         45
  C:5B62H         LINE#         47
  C:5B7AH         LINE#         48
  C:5B99H         LINE#         49
  C:5B99H         LINE#         50
  -------         ENDPROC       _CONV_ANGLE_TICKS
  -------         PROC          _ITOS
  X:0BF8H         SYMBOL        i
  X:0BFAH         SYMBOL        ret
  -------         DO            
  X:0BFDH         SYMBOL        nbr3
  X:0C00H         SYMBOL        nbr2
  X:0C02H         SYMBOL        nbr1
  X:0C03H         SYMBOL        c
  X:0C05H         SYMBOL        d
  X:0C07H         SYMBOL        u
  -------         ENDDO         
  C:4424H         LINE#         52
  C:4435H         LINE#         56
  C:444CH         LINE#         57
  C:4479H         LINE#         58
  C:44A0H         LINE#         60
  C:44B1H         LINE#         61
BL51 BANKED LINKER/LOCATER V6.22                                                      05/23/2018  10:43:45  PAGE 17


  C:44BCH         LINE#         62
  C:44C7H         LINE#         63
  C:44D2H         LINE#         64
  C:44E7H         LINE#         65
  C:44E9H         LINE#         66
  C:44FAH         LINE#         67
  C:4505H         LINE#         68
  C:4510H         LINE#         69
  C:4525H         LINE#         70
  C:4527H         LINE#         71
  C:4527H         LINE#         72
  C:4532H         LINE#         73
  C:454AH         LINE#         74
  C:454AH         LINE#         75
  -------         ENDPROC       _ITOS
  -------         PROC          _TRUE_VIT
  D:0007H         SYMBOL        vit
  -------         DO            
  D:0004H         SYMBOL        ret
  -------         ENDDO         
  C:0003H         LINE#         77
  C:0003H         LINE#         78
  C:0007H         LINE#         80
  C:000CH         LINE#         81
  C:001BH         LINE#         82
  C:001BH         LINE#         83
  C:001FH         LINE#         84
  -------         ENDPROC       _TRUE_VIT
  C:4566H         SYMBOL        L?0089
  -------         PROC          L?0088
  -------         ENDPROC       L?0088
  C:4566H         SYMBOL        L?0089
  -------         PROC          _TRUE_TICKS
  X:06C1H         SYMBOL        ticks
  X:06C3H         SYMBOL        ret
  -------         DO            
  X:06C6H         SYMBOL        str
  X:06CAH         SYMBOL        l
  -------         ENDDO         
  C:4571H         LINE#         86
  C:4582H         LINE#         87
  C:4595H         LINE#         88
  C:459CH         LINE#         90
  C:45ACH         LINE#         91
  C:45CEH         LINE#         92
  C:45CEH         LINE#         93
  C:45CEH         LINE#         94
  C:45E5H         LINE#         95
  C:45FBH         LINE#         96
  C:4621H         LINE#         97
  C:463DH         LINE#         98
  C:4653H         LINE#         99
  C:466DH         LINE#         100
  C:466DH         LINE#         101
  -------         ENDPROC       _TRUE_TICKS
  -------         PROC          FORMATE_SERIALIZER
  X:06A6H         SYMBOL        com
BL51 BANKED LINKER/LOCATER V6.22                                                      05/23/2018  10:43:45  PAGE 18


  X:06B5H         SYMBOL        ret
  -------         DO            
  X:06B8H         SYMBOL        nbr
  -------         ENDDO         
  C:18A2H         LINE#         110
  C:18A2H         LINE#         113
  C:18FFH         LINE#         114
  C:18FFH         LINE#         115
  C:1914H         LINE#         116
  C:1917H         LINE#         117
  C:1917H         LINE#         118
  C:1917H         LINE#         119
  C:1917H         LINE#         120
  C:1917H         LINE#         121
  C:1917H         LINE#         122
  C:1917H         LINE#         123
  C:1917H         LINE#         124
  C:1917H         LINE#         125
  C:1917H         LINE#         126
  C:1917H         LINE#         127
  C:1917H         LINE#         128
  C:1917H         LINE#         129
  C:1917H         LINE#         130
  C:1917H         LINE#         131
  C:1917H         LINE#         132
  C:1917H         LINE#         133
  C:1917H         LINE#         134
  C:1917H         LINE#         135
  C:1917H         LINE#         136
  C:1917H         LINE#         137
  C:192FH         LINE#         138
  C:192FH         LINE#         139
  C:192FH         LINE#         140
  C:1932H         LINE#         141
  C:1932H         LINE#         142
  C:1932H         LINE#         143
  C:194AH         LINE#         144
  C:194AH         LINE#         145
  C:194AH         LINE#         146
  C:194DH         LINE#         147
  C:194DH         LINE#         148
  C:194DH         LINE#         149
  C:1965H         LINE#         150
  C:198CH         LINE#         151
  C:19A8H         LINE#         152
  C:19C4H         LINE#         153
  C:19C4H         LINE#         154
  C:19C4H         LINE#         155
  C:19C7H         LINE#         156
  C:19C7H         LINE#         157
  C:19C7H         LINE#         158
  C:19DCH         LINE#         159
  C:19DCH         LINE#         160
  C:19DCH         LINE#         161
  C:19DCH         LINE#         162
  C:19DCH         LINE#         163
  C:19DCH         LINE#         164
BL51 BANKED LINKER/LOCATER V6.22                                                      05/23/2018  10:43:45  PAGE 19


  C:19DCH         LINE#         165
  C:19DCH         LINE#         166
  C:19DCH         LINE#         167
  C:19DCH         LINE#         168
  C:19DCH         LINE#         169
  C:19DCH         LINE#         170
  C:19DCH         LINE#         171
  C:19DFH         LINE#         172
  C:19DFH         LINE#         173
  C:19DFH         LINE#         174
  C:19F4H         LINE#         175
  C:19F7H         LINE#         176
  C:19F7H         LINE#         177
  C:19F7H         LINE#         178
  C:19F7H         LINE#         179
  C:19FAH         LINE#         180
  C:1A16H         LINE#         181
  C:1A32H         LINE#         182
  C:1A35H         LINE#         183
  C:1A35H         LINE#         184
  C:1A38H         LINE#         185
  C:1A38H         LINE#         186
  C:1A38H         LINE#         187
  C:1A50H         LINE#         188
  C:1A77H         LINE#         189
  C:1A93H         LINE#         190
  C:1AAFH         LINE#         191
  C:1AB5H         LINE#         192
  C:1AB5H         LINE#         193
  C:1AB8H         LINE#         194
  C:1AB8H         LINE#         195
  C:1AB8H         LINE#         196
  C:1AB8H         LINE#         197
  C:1ABBH         LINE#         198
  C:1AD7H         LINE#         199
  C:1AF3H         LINE#         200
  C:1B1AH         LINE#         201
  C:1B36H         LINE#         202
  C:1B52H         LINE#         203
  C:1B58H         LINE#         204
  C:1B74H         LINE#         205
  C:1B90H         LINE#         206
  C:1BB7H         LINE#         207
  C:1BC4H         LINE#         208
  C:1BC7H         LINE#         209
  C:1BC7H         LINE#         210
  C:1BC7H         LINE#         211
  C:1BDFH         LINE#         212
  C:1C05H         LINE#         213
  C:1C21H         LINE#         214
  C:1C3DH         LINE#         215
  C:1C63H         LINE#         216
  C:1C7FH         LINE#         217
  C:1C9BH         LINE#         218
  C:1CC1H         LINE#         219
  C:1CDDH         LINE#         220
  C:1CF9H         LINE#         221
BL51 BANKED LINKER/LOCATER V6.22                                                      05/23/2018  10:43:45  PAGE 20


  C:1D1FH         LINE#         222
  C:1D3BH         LINE#         223
  C:1D57H         LINE#         224
  C:1D59H         LINE#         225
  C:1D59H         LINE#         226
  C:1D59H         LINE#         227
  C:1D6EH         LINE#         228
  C:1D70H         LINE#         229
  C:1D70H         LINE#         230
  C:1D70H         LINE#         231
  C:1D70H         LINE#         232
  C:1D70H         LINE#         233
  C:1D70H         LINE#         234
  C:1D70H         LINE#         235
  C:1D70H         LINE#         236
  C:1D70H         LINE#         237
  C:1D85H         LINE#         238
  C:1D87H         LINE#         239
  C:1D87H         LINE#         240
  C:1D87H         LINE#         241
  C:1D9CH         LINE#         242
  C:1D9EH         LINE#         243
  C:1D9EH         LINE#         244
  C:1D9EH         LINE#         245
  C:1DB6H         LINE#         246
  C:1DB6H         LINE#         247
  C:1DB6H         LINE#         248
  C:1DB6H         LINE#         249
  C:1DB6H         LINE#         250
  C:1DB6H         LINE#         251
  -------         ENDPROC       FORMATE_SERIALIZER
  -------         PROC          TRANSCODE_COMMANDE_TO_SERIALIZER
  X:06A6H         SYMBOL        com
  -------         DO            
  X:06CCH         SYMBOL        ret
  X:06DBH         SYMBOL        v_angl
  D:0007H         SYMBOL        v_line
  -------         ENDDO         
  C:2EF7H         LINE#         259
  C:2EF7H         LINE#         261
  C:2EFDH         LINE#         262
  C:2EFFH         LINE#         264
  C:2F07H         LINE#         265
  C:2F07H         LINE#         266
  C:2F0DH         LINE#         267
  C:2F0DH         LINE#         268
  C:2F0DH         LINE#         269
  C:2F0DH         LINE#         270
  C:2F0DH         LINE#         271
  C:2F0DH         LINE#         273
  C:2F46H         LINE#         275
  C:2F46H         LINE#         276
  C:2F4CH         LINE#         277
  C:2F53H         LINE#         278
  C:2F55H         LINE#         279
  C:2F55H         LINE#         280
  C:2F59H         LINE#         281
BL51 BANKED LINKER/LOCATER V6.22                                                      05/23/2018  10:43:45  PAGE 21


  C:2F59H         LINE#         282
  C:2F5BH         LINE#         283
  C:2F5BH         LINE#         285
  C:2F5BH         LINE#         286
  C:2F61H         LINE#         287
  C:2F68H         LINE#         288
  C:2F6AH         LINE#         289
  C:2F6AH         LINE#         290
  C:2F74H         LINE#         291
  C:2F78H         LINE#         292
  C:2F7BH         LINE#         293
  C:2F7BH         LINE#         295
  C:2F7BH         LINE#         296
  C:2F81H         LINE#         297
  C:2F84H         LINE#         298
  C:2F84H         LINE#         300
  C:2F84H         LINE#         301
  C:2F8BH         LINE#         302
  C:2F93H         LINE#         303
  C:2F93H         LINE#         304
  C:2F99H         LINE#         305
  C:2FA1H         LINE#         306
  C:2FB5H         LINE#         307
  C:2FBDH         LINE#         308
  C:2FBFH         LINE#         309
  C:2FC1H         LINE#         310
  C:2FC1H         LINE#         312
  C:2FC1H         LINE#         313
  C:2FC8H         LINE#         314
  C:2FD0H         LINE#         315
  C:2FD0H         LINE#         316
  C:2FD6H         LINE#         317
  C:2FDEH         LINE#         318
  C:2FEDH         LINE#         319
  C:2FF5H         LINE#         320
  C:2FF7H         LINE#         321
  C:2FF9H         LINE#         322
  C:2FF9H         LINE#         324
  C:2FF9H         LINE#         325
  C:3000H         LINE#         326
  C:3008H         LINE#         327
  C:3008H         LINE#         328
  C:300EH         LINE#         329
  C:3016H         LINE#         330
  C:302AH         LINE#         331
  C:3032H         LINE#         332
  C:3036H         LINE#         333
  C:3039H         LINE#         334
  C:3039H         LINE#         336
  C:3039H         LINE#         337
  C:3040H         LINE#         338
  C:3048H         LINE#         339
  C:3048H         LINE#         340
  C:304EH         LINE#         341
  C:3056H         LINE#         342
  C:3065H         LINE#         343
  C:306DH         LINE#         344
BL51 BANKED LINKER/LOCATER V6.22                                                      05/23/2018  10:43:45  PAGE 22


  C:3071H         LINE#         345
  C:3074H         LINE#         346
  C:3074H         LINE#         349
  C:3074H         LINE#         350
  C:307BH         LINE#         351
  C:3083H         LINE#         352
  C:3083H         LINE#         353
  C:3083H         LINE#         354
  C:3083H         LINE#         355
  C:3093H         LINE#         356
  C:309BH         LINE#         357
  C:30ADH         LINE#         358
  C:30B0H         LINE#         359
  C:30B0H         LINE#         361
  C:30B0H         LINE#         362
  C:30B7H         LINE#         363
  C:30BFH         LINE#         364
  C:30BFH         LINE#         365
  C:30BFH         LINE#         366
  C:30BFH         LINE#         367
  C:30CAH         LINE#         368
  C:30D2H         LINE#         369
  C:30EDH         LINE#         370
  C:30EFH         LINE#         371
  C:30EFH         LINE#         373
  C:30EFH         LINE#         374
  C:30F6H         LINE#         375
  C:30FEH         LINE#         376
  C:30FEH         LINE#         377
  C:3104H         LINE#         378
  C:310BH         LINE#         379
  C:3116H         LINE#         380
  C:311DH         LINE#         381
  C:3128H         LINE#         383
  C:3128H         LINE#         384
  C:3128H         LINE#         385
  C:3128H         LINE#         386
  C:3128H         LINE#         387
  C:3128H         LINE#         389
  C:312EH         LINE#         390
  -------         ENDPROC       TRANSCODE_COMMANDE_TO_SERIALIZER
  -------         ENDMOD        FONCTIONS_COTE_SERIALIZER

  -------         MODULE        GENERATION_SON
  C:0000H         SYMBOL        _ICE_DUMMY_
  D:00E8H         PUBLIC        ADC0CN
  D:00A8H         PUBLIC        IE
  D:00D8H         PUBLIC        PCA0CN
  D:00B8H         PUBLIC        IP
  D:00C0H         PUBLIC        SMB0CN
  D:00F8H         PUBLIC        SPI0CN
  D:0088H         PUBLIC        TCON
  C:5E40H         SYMBOL        _?ix1000
  C:5B9AH         PUBLIC        son_sonore
  D:0098H         PUBLIC        SCON0
  D:00C8H         PUBLIC        T2CON
  D:00D0H         PUBLIC        PSW
BL51 BANKED LINKER/LOCATER V6.22                                                      05/23/2018  10:43:45  PAGE 23


  -------         PROC          SON_SONORE
  X:06A6H         SYMBOL        com
  -------         DO            
  X:06CCH         SYMBOL        rep
  D:0007H         SYMBOL        commande_SPI
  D:0006H         SYMBOL        taille_trame
  -------         ENDDO         
  C:5B9AH         LINE#         10
  C:5B9AH         LINE#         11
  C:5BADH         LINE#         12
  C:5BAEH         LINE#         13
  C:5BB0H         LINE#         15
  C:5BB2H         LINE#         16
  C:5BBAH         LINE#         17
  C:5BC2H         LINE#         18
  C:5BCAH         LINE#         19
  C:5BD2H         LINE#         21
  C:5BE2H         LINE#         22
  -------         ENDPROC       SON_SONORE
  -------         ENDMOD        GENERATION_SON

  -------         MODULE        GPIO
  C:0000H         SYMBOL        _ICE_DUMMY_
  D:0080H         PUBLIC        P0
  D:0090H         PUBLIC        P1
  D:00A0H         PUBLIC        P2
  D:00B0H         PUBLIC        P3
  D:00E8H         PUBLIC        ADC0CN
  D:00A8H         PUBLIC        IE
  D:00D8H         PUBLIC        PCA0CN
  D:00B8H         PUBLIC        IP
  D:00C0H         PUBLIC        SMB0CN
  D:00F8H         PUBLIC        SPI0CN
  D:0088H         PUBLIC        TCON
  D:0098H         PUBLIC        SCON0
  D:00C8H         PUBLIC        T2CON
  D:00D0H         PUBLIC        PSW
  -------         ENDMOD        GPIO

  -------         MODULE        LIEN_STRUCTURE_COMMANDE
  C:0000H         SYMBOL        _ICE_DUMMY_
  D:0080H         PUBLIC        P0
  D:0090H         PUBLIC        P1
  D:00A0H         PUBLIC        P2
  D:00B0H         PUBLIC        P3
  X:0A95H         PUBLIC        dist_arriere
  X:0A99H         PUBLIC        Angle_voulu
  X:0A9AH         PUBLIC        angle
  D:00E8H         PUBLIC        ADC0CN
  D:00A8H         PUBLIC        IE
  D:00D8H         PUBLIC        PCA0CN
  D:00B8H         PUBLIC        IP
  D:00C0H         PUBLIC        SMB0CN
  X:0A9BH         PUBLIC        msg_Slave
  C:4E8AH         PUBLIC        tempo_emiss
  D:00F8H         PUBLIC        SPI0CN
  X:0A9CH         PUBLIC        dist_avant
BL51 BANKED LINKER/LOCATER V6.22                                                      05/23/2018  10:43:45  PAGE 24


  D:0088H         PUBLIC        TCON
  X:0AA0H         PUBLIC        mess
  X:0AD2H         PUBLIC        message_s
  C:0AFAH         PUBLIC        fonctionRoutage
  C:1E0EH         SYMBOL        _?ix1000
  C:1E10H         SYMBOL        _?ix1001
  C:1E42H         SYMBOL        _?ix1002
  C:1E74H         SYMBOL        _?ix1003
  C:1EA6H         SYMBOL        _?ix1004
  C:1ED8H         SYMBOL        _?ix1005
  X:0B04H         PUBLIC        Angle_atteint
  X:0B06H         PUBLIC        a
  X:0B07H         PUBLIC        courant_actuel
  D:0098H         PUBLIC        SCON0
  D:00C8H         PUBLIC        T2CON
  X:0B0BH         PUBLIC        i
  X:0B0CH         PUBLIC        commande_serializer
  D:00D0H         PUBLIC        PSW
  C:5005H         PUBLIC        routage
  -------         PROC          ROUTAGE
  X:06A6H         SYMBOL        commande
  X:06CCH         SYMBOL        type
  C:5005H         LINE#         47
  C:5005H         LINE#         49
  C:500DH         LINE#         50
  C:501AH         LINE#         51
  C:501DH         LINE#         52
  C:5021H         LINE#         53
  C:502EH         LINE#         54
  C:5030H         LINE#         55
  C:5036H         LINE#         56
  C:5043H         LINE#         57
  C:5045H         LINE#         58
  C:504BH         LINE#         59
  C:5058H         LINE#         60
  C:505AH         LINE#         61
  C:5062H         LINE#         62
  C:506FH         LINE#         63
  C:5071H         LINE#         64
  C:5075H         LINE#         65
  C:5082H         LINE#         66
  C:5084H         LINE#         67
  C:508AH         LINE#         68
  C:5097H         LINE#         69
  C:5099H         LINE#         70
  C:509FH         LINE#         71
  C:50AFH         LINE#         72
  C:50AFH         LINE#         73
  -------         ENDPROC       ROUTAGE
  -------         PROC          FONCTIONROUTAGE
  X:009CH         SYMBOL        commande
  -------         DO            
  X:00C2H         SYMBOL        route
  X:00C3H         SYMBOL        commande_SPI
  X:00C4H         SYMBOL        trame
  X:00C6H         SYMBOL        taille_trame
  X:00C7H         SYMBOL        alpha
BL51 BANKED LINKER/LOCATER V6.22                                                      05/23/2018  10:43:45  PAGE 25


  X:00CBH         SYMBOL        distance
  X:00CDH         SYMBOL        angle_ascii
  X:00D0H         SYMBOL        mess
  X:0102H         SYMBOL        mess1
  X:0134H         SYMBOL        mess2
  X:0166H         SYMBOL        mess3
  X:0198H         SYMBOL        compteur
  X:019AH         SYMBOL        msg_Slave_ascii
  X:029AH         SYMBOL        info
  X:02B4H         SYMBOL        courant_ascii
  X:02B8H         SYMBOL        energie_ascii
  X:02BCH         SYMBOL        string_s
  X:06A4H         SYMBOL        cpt
  -------         ENDDO         
  C:0AFAH         LINE#         75
  C:0AFAH         LINE#         76
  C:0AFFH         LINE#         77
  C:0B01H         LINE#         78
  C:0B13H         LINE#         79
  C:0B19H         LINE#         83
  C:0B2BH         LINE#         84
  C:0B3EH         LINE#         85
  C:0B51H         LINE#         86
  C:0B64H         LINE#         87
  C:0B6BH         LINE#         93
  C:0B7EH         LINE#         94
  C:0B85H         LINE#         95
  C:0BA8H         LINE#         97
  C:0BDBH         LINE#         100
  C:0BDBH         LINE#         101
  C:0BE5H         LINE#         102
  C:0BF4H         LINE#         103
  C:0BFDH         LINE#         105
  C:0C11H         LINE#         106
  C:0C20H         LINE#         107
  C:0C37H         LINE#         108
  C:0C37H         LINE#         109
  C:0C3AH         LINE#         112
  C:0C3AH         LINE#         113
  C:0C40H         LINE#         114
  C:0C4BH         LINE#         115
  C:0C53H         LINE#         116
  C:0C57H         LINE#         117
  C:0C5DH         LINE#         118
  C:0C5FH         LINE#         119
  C:0C5FH         LINE#         120
  C:0C65H         LINE#         121
  C:0C65H         LINE#         122
  C:0C6BH         LINE#         123
  C:0C7EH         LINE#         124
  C:0C81H         LINE#         125
  C:0C89H         LINE#         126
  C:0C8CH         LINE#         127
  C:0CABH         LINE#         128
  C:0CB4H         LINE#         129
  C:0CB4H         LINE#         130
  C:0CB7H         LINE#         133
BL51 BANKED LINKER/LOCATER V6.22                                                      05/23/2018  10:43:45  PAGE 26


  C:0CB7H         LINE#         134
  C:0CC2H         LINE#         135
  C:0CF9H         LINE#         136
  C:0D89H         LINE#         137
  C:0DA1H         LINE#         138
  C:0DBFH         LINE#         141
  C:0DC5H         LINE#         142
  C:0DD4H         LINE#         143
  C:0DF7H         LINE#         144
  C:0E1BH         LINE#         146
  C:0E21H         LINE#         147
  C:0E25H         LINE#         148
  C:0E48H         LINE#         149
  C:0E6CH         LINE#         151
  C:0E72H         LINE#         152
  C:0E76H         LINE#         153
  C:0E8FH         LINE#         154
  C:0EB2H         LINE#         155
  C:0ED6H         LINE#         156
  C:0EDFH         LINE#         157
  C:0EE8H         LINE#         158
  C:0EF1H         LINE#         159
  C:0EF8H         LINE#         160
  C:0F0CH         LINE#         161
  C:0F13H         LINE#         162
  C:0F13H         LINE#         163
  C:0F14H         LINE#         164
  C:0F2EH         LINE#         165
  C:0F2EH         LINE#         166
  C:0F37H         LINE#         167
  C:0F40H         LINE#         168
  C:0F47H         LINE#         169
  C:0F47H         LINE#         170
  C:0F48H         LINE#         171
  C:0F62H         LINE#         172
  C:0F62H         LINE#         173
  C:0F6AH         LINE#         174
  C:0F6CH         LINE#         175
  C:0F80H         LINE#         176
  C:0F8EH         LINE#         177
  C:0F8EH         LINE#         178
  C:0FB0H         LINE#         179
  C:0FB7H         LINE#         180
  C:0FCFH         LINE#         181
  C:0FD6H         LINE#         182
  C:0FDFH         LINE#         183
  C:0FE8H         LINE#         184
  C:0FF1H         LINE#         185
  C:0FF8H         LINE#         186
  C:0FF8H         LINE#         187
  C:0FF9H         LINE#         188
  C:1013H         LINE#         189
  C:101AH         LINE#         190
  C:101AH         LINE#         192
  C:1023H         LINE#         193
  C:102AH         LINE#         194
  C:102AH         LINE#         195
BL51 BANKED LINKER/LOCATER V6.22                                                      05/23/2018  10:43:45  PAGE 27


  C:102BH         LINE#         196
  C:1045H         LINE#         197
  C:1045H         LINE#         198
  C:104DH         LINE#         199
  C:104FH         LINE#         200
  C:1063H         LINE#         201
  C:1071H         LINE#         202
  C:1071H         LINE#         203
  C:1078H         LINE#         204
  C:1078H         LINE#         205
  C:1080H         LINE#         206
  C:1082H         LINE#         207
  C:1096H         LINE#         208
  C:10A4H         LINE#         209
  C:10A4H         LINE#         210
  C:10ABH         LINE#         212
  C:10C3H         LINE#         213
  C:10CAH         LINE#         214
  C:10D3H         LINE#         215
  C:10DCH         LINE#         216
  C:10E5H         LINE#         217
  C:10E8H         LINE#         218
  C:10E8H         LINE#         219
  C:110BH         LINE#         220
  C:112FH         LINE#         221
  C:1138H         LINE#         222
  C:1141H         LINE#         223
  C:1146H         LINE#         224
  C:114AH         LINE#         225
  C:114AH         LINE#         226
  C:1152H         LINE#         227
  C:1154H         LINE#         228
  C:116BH         LINE#         229
  C:1171H         LINE#         230
  C:1171H         LINE#         231
  C:1178H         LINE#         232
  C:1178H         LINE#         233
  C:118DH         LINE#         234
  C:118DH         LINE#         235
  C:1190H         LINE#         239
  C:1190H         LINE#         240
  C:11A6H         LINE#         241
  C:11AFH         LINE#         242
  C:11B8H         LINE#         243
  C:11CCH         LINE#         244
  C:11CCH         LINE#         247
  C:11CCH         LINE#         248
  C:11DCH         LINE#         249
  C:11F9H         LINE#         250
  C:1202H         LINE#         251
  C:1208H         LINE#         252
  C:120BH         LINE#         255
  C:120BH         LINE#         256
  C:1224H         LINE#         257
  C:1241H         LINE#         258
  C:124AH         LINE#         259
  C:1250H         LINE#         260
BL51 BANKED LINKER/LOCATER V6.22                                                      05/23/2018  10:43:45  PAGE 28


  C:1252H         LINE#         263
  C:1252H         LINE#         264
  C:1268H         LINE#         265
  C:126EH         LINE#         266
  C:1270H         LINE#         269
  C:1270H         LINE#         270
  C:1286H         LINE#         271
  C:128CH         LINE#         272
  C:128EH         LINE#         274
  C:128EH         LINE#         275
  C:129DH         LINE#         276
  C:12A6H         LINE#         277
  C:12A6H         LINE#         279
  C:12A6H         LINE#         280
  -------         ENDPROC       FONCTIONROUTAGE
  -------         PROC          TEMPO_EMISS
  -------         DO            
  X:06D0H         SYMBOL        x
  -------         ENDDO         
  C:4E8AH         LINE#         282
  C:4E8AH         LINE#         283
  C:4E91H         LINE#         285
  C:4EBEH         LINE#         286
  C:4EECH         LINE#         287
  C:4F1AH         LINE#         288
  C:4F48H         LINE#         289
  -------         ENDPROC       TEMPO_EMISS
  -------         ENDMOD        LIEN_STRUCTURE_COMMANDE

  -------         MODULE        MAIN
  C:0000H         SYMBOL        _ICE_DUMMY_
  X:0BBBH         PUBLIC        message_PC_com
  D:0080H         PUBLIC        P0
  X:0BEDH         PUBLIC        courant
  D:0090H         PUBLIC        P1
  D:00A0H         PUBLIC        P2
  D:00B0H         PUBLIC        P3
  C:0026H         PUBLIC        ISR_Timer2
  B:00A8H.7       PUBLIC        EA
  C:555AH         PUBLIC        ISR_Timer3
  B:00A0H.0       PUBLIC        PWM_servo
  X:0BEFH         PUBLIC        vitesse_par_defaut
  D:00E8H         PUBLIC        ADC0CN
  D:00A8H         PUBLIC        IE
  D:00D8H         PUBLIC        PCA0CN
  D:00B8H         PUBLIC        IP
  X:0BF1H         PUBLIC        commande_correct
  D:00C0H         PUBLIC        SMB0CN
  C:3AC8H         PUBLIC        main
  D:00F8H         PUBLIC        SPI0CN
  D:0088H         PUBLIC        TCON
  C:335CH         PUBLIC        _conv
  D:0091H         PUBLIC        TMR3CN
  C:4DBEH         PUBLIC        _conversionangle_positif
  C:3D52H         SYMBOL        _?ix1000
  C:3D84H         SYMBOL        _?ix1001
  C:3D8AH         SYMBOL        _?ix1002
BL51 BANKED LINKER/LOCATER V6.22                                                      05/23/2018  10:43:45  PAGE 29


  X:0BF3H         PUBLIC        epreuve_en_cours
  C:3D8DH         SYMBOL        _?ix1003
  C:312FH         PUBLIC        _Message
  B:00C8H.7       PUBLIC        TF2
  B:00C8H.2       PUBLIC        TR2
  X:0BF4H         PUBLIC        energie
  D:0098H         PUBLIC        SCON0
  C:407EH         PUBLIC        _traitement_A
  C:53BAH         PUBLIC        _traitement_B
  C:3758H         PUBLIC        _traitement_C
  D:00C8H         PUBLIC        T2CON
  C:41D1H         PUBLIC        _traitement_D
  C:5C7EH         PUBLIC        _conversioncoord
  C:5D8AH         PUBLIC        traitement_E
  C:3915H         PUBLIC        _traitement_G
  C:2CBEH         PUBLIC        _traitement_L
  C:2743H         PUBLIC        _traitement_M
  B:00A0H.5       PUBLIC        NSS_slave
  C:5DDFH         PUBLIC        traitement_Q
  C:3F25H         PUBLIC        _traitement_R
  C:2A63H         PUBLIC        _traitement_S
  C:55DEH         PUBLIC        _traitement_T
  C:5C35H         PUBLIC        _conversioncoord_2
  D:00D0H         PUBLIC        PSW
  C:5C78H         SYMBOL        L?0341
  -------         PROC          L?0340
  -------         ENDPROC       L?0340
  C:5C78H         SYMBOL        L?0341
  -------         PROC          _CONVERSIONCOORD
  D:0001H         SYMBOL        tableau
  -------         DO            
  D:0006H         SYMBOL        dizaine
  D:0004H         SYMBOL        unite
  D:0007H         SYMBOL        valeur
  -------         ENDDO         
  C:5C7EH         LINE#         38
  C:5C7EH         LINE#         39
  C:5C7FH         LINE#         40
  C:5C80H         LINE#         43
  C:5C8FH         LINE#         44
  C:5C98H         LINE#         46
  C:5C9BH         LINE#         47
  C:5C9BH         LINE#         48
  -------         ENDPROC       _CONVERSIONCOORD
  C:5C2FH         SYMBOL        L?0339
  -------         PROC          L?0338
  -------         ENDPROC       L?0338
  C:5C2FH         SYMBOL        L?0339
  -------         PROC          _CONVERSIONCOORD_2
  D:0001H         SYMBOL        tableau
  -------         DO            
  D:0006H         SYMBOL        dizaine
  D:0004H         SYMBOL        unite
  X:00F4H         SYMBOL        centaine
  D:0007H         SYMBOL        valeur
  -------         ENDDO         
  C:5C35H         LINE#         50
BL51 BANKED LINKER/LOCATER V6.22                                                      05/23/2018  10:43:45  PAGE 30


  C:5C35H         LINE#         51
  C:5C36H         LINE#         52
  C:5C37H         LINE#         53
  C:5C3DH         LINE#         56
  C:5C54H         LINE#         57
  C:5C66H         LINE#         58
  C:5C6FH         LINE#         60
  C:5C77H         LINE#         61
  C:5C77H         LINE#         62
  -------         ENDPROC       _CONVERSIONCOORD_2
  C:3352H         SYMBOL        L?0337
  -------         PROC          L?0336
  -------         ENDPROC       L?0336
  C:3352H         SYMBOL        L?0337
  -------         PROC          _CONV
  X:00FAH         SYMBOL        nbr
  X:00FDH         SYMBOL        taille
  -------         DO            
  X:00FFH         SYMBOL        k
  X:0101H         SYMBOL        t1
  X:0105H         SYMBOL        ret
  X:0107H         SYMBOL        numero
  -------         ENDDO         
  C:335CH         LINE#         78
  C:336FH         LINE#         79
  C:336FH         LINE#         80
  C:3376H         LINE#         81
  C:337EH         LINE#         82
  C:3385H         LINE#         83
  C:3389H         LINE#         85
  C:3393H         LINE#         86
  C:3393H         LINE#         87
  C:33B8H         LINE#         88
  C:33B8H         LINE#         89
  C:33E4H         LINE#         90
  C:341BH         LINE#         91
  C:3479H         LINE#         92
  C:3485H         LINE#         93
  C:3499H         LINE#         94
  C:34B0H         LINE#         95
  C:34B3H         LINE#         97
  C:34B3H         LINE#         98
  C:34D7H         LINE#         99
  C:34D7H         LINE#         100
  C:354AH         LINE#         101
  C:3556H         LINE#         102
  C:3567H         LINE#         103
  C:3567H         LINE#         104
  C:356FH         LINE#         105
  -------         ENDPROC       _CONV
  -------         PROC          L?0342
  -------         ENDPROC       L?0342
  -------         PROC          _CONVERSIONANGLE_POSITIF
  D:0001H         SYMBOL        tableau
  -------         DO            
  X:00F5H         SYMBOL        centaine
  X:00F7H         SYMBOL        dizaine
BL51 BANKED LINKER/LOCATER V6.22                                                      05/23/2018  10:43:45  PAGE 31


  X:00F9H         SYMBOL        unite
  X:00FBH         SYMBOL        valeur
  -------         ENDDO         
  C:4DBEH         LINE#         106
  C:4DBEH         LINE#         107
  C:4DC5H         LINE#         108
  C:4DC9H         LINE#         109
  C:4DCDH         LINE#         112
  C:4DD4H         LINE#         113
  C:4DF2H         LINE#         114
  C:4E05H         LINE#         115
  C:4E19H         LINE#         116
  C:4E1BH         LINE#         117
  C:4E1BH         LINE#         118
  C:4E34H         LINE#         119
  C:4E4EH         LINE#         120
  C:4E62H         LINE#         121
  C:4E81H         LINE#         122
  C:4E81H         LINE#         123
  C:4E89H         LINE#         124
  -------         ENDPROC       _CONVERSIONANGLE_POSITIF
  -------         PROC          _TRAITEMENT_A
  X:00C5H         SYMBOL        com
  X:00C8H         SYMBOL        commande
  -------         DO            
  D:0007H         SYMBOL        vitesse
  X:00EEH         SYMBOL        tab
  X:00F1H         SYMBOL        j
  D:0007H         SYMBOL        duree
  -------         ENDDO         
  C:407EH         LINE#         126
  C:4089H         LINE#         132
  C:409AH         LINE#         133
  C:409AH         LINE#         134
  C:409AH         LINE#         135
  C:409AH         LINE#         136
  C:40A1H         LINE#         137
  C:40A9H         LINE#         138
  C:40A9H         LINE#         139
  C:40D0H         LINE#         140
  C:40EAH         LINE#         141
  C:40EDH         LINE#         142
  C:40FDH         LINE#         143
  C:40FDH         LINE#         144
  C:40FDH         LINE#         145
  C:4100H         LINE#         146
  C:4105H         LINE#         147
  C:4108H         LINE#         148
  C:4108H         LINE#         149
  C:4108H         LINE#         150
  C:4108H         LINE#         151
  C:4113H         LINE#         152
  C:4118H         LINE#         154
  C:4130H         LINE#         155
  C:4130H         LINE#         156
  C:4139H         LINE#         157
  C:4139H         LINE#         158
BL51 BANKED LINKER/LOCATER V6.22                                                      05/23/2018  10:43:45  PAGE 32


  C:4160H         LINE#         159
  C:417AH         LINE#         160
  C:417DH         LINE#         161
  C:418CH         LINE#         162
  C:418CH         LINE#         163
  C:4193H         LINE#         164
  C:4195H         LINE#         166
  C:4195H         LINE#         167
  C:4199H         LINE#         168
  C:4199H         LINE#         170
  C:419BH         LINE#         178
  C:419BH         LINE#         179
  C:419BH         LINE#         180
  C:419BH         LINE#         181
  C:41A2H         LINE#         182
  C:41A8H         LINE#         183
  C:41B2H         LINE#         184
  C:41B2H         LINE#         185
  C:41BBH         LINE#         186
  C:41CAH         LINE#         187
  C:41CAH         LINE#         188
  C:41CAH         LINE#         189
  C:41D0H         LINE#         190
  -------         ENDPROC       _TRAITEMENT_A
  -------         PROC          _TRAITEMENT_B
  X:00C5H         SYMBOL        com
  X:00C8H         SYMBOL        commande
  -------         DO            
  D:0007H         SYMBOL        vitesse
  X:00EEH         SYMBOL        tab
  D:0006H         SYMBOL        j
  -------         ENDDO         
  C:53BAH         LINE#         191
  C:53C5H         LINE#         192
  C:53C5H         LINE#         196
  C:53CBH         LINE#         197
  C:53E0H         LINE#         198
  C:53E0H         LINE#         199
  C:53E3H         LINE#         200
  C:53E3H         LINE#         201
  C:5402H         LINE#         202
  C:540DH         LINE#         203
  C:5416H         LINE#         204
  C:5426H         LINE#         205
  C:5426H         LINE#         206
  C:542DH         LINE#         207
  C:542FH         LINE#         209
  C:542FH         LINE#         210
  C:5434H         LINE#         211
  C:5434H         LINE#         212
  C:5434H         LINE#         213
  C:5436H         LINE#         215
  C:5436H         LINE#         216
  C:543EH         LINE#         217
  C:543EH         LINE#         219
  C:5444H         LINE#         220
  -------         ENDPROC       _TRAITEMENT_B
BL51 BANKED LINKER/LOCATER V6.22                                                      05/23/2018  10:43:45  PAGE 33


  -------         PROC          _TRAITEMENT_C
  X:00C5H         SYMBOL        com
  X:00C8H         SYMBOL        commande
  -------         DO            
  X:00EEH         SYMBOL        angle
  X:00F0H         SYMBOL        tab
  X:00F3H         SYMBOL        j
  -------         ENDDO         
  C:3758H         LINE#         221
  C:3763H         LINE#         222
  C:3763H         LINE#         225
  C:376AH         LINE#         226
  C:3789H         LINE#         227
  C:3789H         LINE#         228
  C:3789H         LINE#         229
  C:3789H         LINE#         230
  C:378FH         LINE#         231
  C:379CH         LINE#         232
  C:379CH         LINE#         233
  C:37A4H         LINE#         234
  C:37A4H         LINE#         235
  C:37CBH         LINE#         236
  C:37E5H         LINE#         237
  C:37F6H         LINE#         238
  C:3812H         LINE#         239
  C:3812H         LINE#         240
  C:3816H         LINE#         241
  C:3818H         LINE#         243
  C:3818H         LINE#         244
  C:3820H         LINE#         245
  C:3828H         LINE#         246
  C:3828H         LINE#         247
  C:382AH         LINE#         249
  C:382AH         LINE#         250
  C:3831H         LINE#         251
  C:3831H         LINE#         252
  C:3840H         LINE#         253
  C:3843H         LINE#         254
  C:3843H         LINE#         255
  C:3843H         LINE#         256
  C:3843H         LINE#         257
  C:3849H         LINE#         258
  C:3861H         LINE#         259
  C:3861H         LINE#         260
  C:3869H         LINE#         261
  C:3869H         LINE#         262
  C:3890H         LINE#         263
  C:38AAH         LINE#         264
  C:38BBH         LINE#         265
  C:38D7H         LINE#         266
  C:38D7H         LINE#         267
  C:38DBH         LINE#         268
  C:38DDH         LINE#         270
  C:38DDH         LINE#         271
  C:38E5H         LINE#         272
  C:38EDH         LINE#         273
  C:38EDH         LINE#         274
BL51 BANKED LINKER/LOCATER V6.22                                                      05/23/2018  10:43:45  PAGE 34


  C:38EFH         LINE#         277
  C:38EFH         LINE#         278
  C:38F6H         LINE#         279
  C:38F9H         LINE#         280
  C:38F9H         LINE#         282
  C:38FBH         LINE#         283
  C:38FBH         LINE#         284
  C:38FBH         LINE#         285
  C:38FBH         LINE#         286
  C:3901H         LINE#         287
  C:3908H         LINE#         288
  C:390EH         LINE#         289
  C:390EH         LINE#         290
  C:390EH         LINE#         291
  C:390EH         LINE#         292
  C:3914H         LINE#         293
  -------         ENDPROC       _TRAITEMENT_C
  -------         PROC          _TRAITEMENT_D
  D:0001H         SYMBOL        com
  X:00C8H         SYMBOL        commande
  C:41D1H         LINE#         294
  C:41D1H         LINE#         295
  C:41D1H         LINE#         296
  C:4207H         LINE#         297
  C:4207H         LINE#         298
  C:4207H         LINE#         299
  C:4207H         LINE#         300
  C:420DH         LINE#         301
  C:421BH         LINE#         302
  C:4221H         LINE#         304
  C:4224H         LINE#         306
  C:4224H         LINE#         307
  C:4224H         LINE#         308
  C:4224H         LINE#         309
  C:422AH         LINE#         310
  C:4239H         LINE#         311
  C:423FH         LINE#         313
  C:4242H         LINE#         315
  C:4242H         LINE#         316
  C:4242H         LINE#         317
  C:4242H         LINE#         318
  C:4248H         LINE#         319
  C:424CH         LINE#         320
  C:4258H         LINE#         322
  C:425BH         LINE#         324
  C:425BH         LINE#         325
  C:425BH         LINE#         326
  C:425BH         LINE#         327
  C:4261H         LINE#         328
  C:4265H         LINE#         329
  C:4271H         LINE#         331
  C:4273H         LINE#         333
  C:4273H         LINE#         334
  C:4273H         LINE#         335
  C:4273H         LINE#         336
  C:4279H         LINE#         337
  C:427DH         LINE#         338
BL51 BANKED LINKER/LOCATER V6.22                                                      05/23/2018  10:43:45  PAGE 35


  C:4289H         LINE#         340
  C:428BH         LINE#         341
  C:428BH         LINE#         342
  C:428BH         LINE#         343
  C:428BH         LINE#         344
  C:4291H         LINE#         345
  C:4295H         LINE#         346
  C:42A1H         LINE#         348
  C:42A3H         LINE#         350
  C:42A3H         LINE#         351
  C:42A3H         LINE#         352
  C:42A3H         LINE#         353
  C:42A9H         LINE#         354
  C:42ADH         LINE#         355
  C:42B9H         LINE#         357
  C:42BBH         LINE#         358
  C:42BBH         LINE#         359
  C:42BBH         LINE#         360
  C:42BBH         LINE#         361
  C:42C1H         LINE#         362
  C:42C5H         LINE#         363
  C:42D1H         LINE#         365
  C:42D3H         LINE#         366
  C:42D3H         LINE#         367
  C:42D3H         LINE#         368
  C:42D3H         LINE#         369
  C:42D9H         LINE#         370
  C:42DDH         LINE#         371
  C:42EBH         LINE#         374
  C:42EBH         LINE#         375
  C:42EBH         LINE#         376
  C:42F4H         LINE#         377
  C:42FAH         LINE#         378
  -------         ENDPROC       _TRAITEMENT_D
  -------         PROC          TRAITEMENT_E
  X:00C5H         SYMBOL        commande
  C:5D8AH         LINE#         379
  C:5D8AH         LINE#         380
  C:5D8AH         LINE#         382
  C:5D8FH         LINE#         383
  C:5D91H         LINE#         384
  C:5D95H         LINE#         385
  C:5D9BH         LINE#         386
  -------         ENDPROC       TRAITEMENT_E
  -------         PROC          _TRAITEMENT_G
  X:00C5H         SYMBOL        com
  X:00C8H         SYMBOL        commande
  -------         DO            
  X:00EEH         SYMBOL        i
  D:0006H         SYMBOL        k
  X:00F0H         SYMBOL        coord
  -------         ENDDO         
  C:3915H         LINE#         387
  C:3920H         LINE#         388
  C:3920H         LINE#         389
  C:3929H         LINE#         390
  C:392CH         LINE#         392
BL51 BANKED LINKER/LOCATER V6.22                                                      05/23/2018  10:43:45  PAGE 36


  C:3969H         LINE#         393
  C:3969H         LINE#         394
  C:396FH         LINE#         396
  C:398DH         LINE#         397
  C:398DH         LINE#         398
  C:3999H         LINE#         399
  C:39A7H         LINE#         400
  C:39ACH         LINE#         401
  C:39AEH         LINE#         402
  C:39BAH         LINE#         403
  C:39CEH         LINE#         404
  C:39DCH         LINE#         405
  C:39DFH         LINE#         406
  C:39FDH         LINE#         407
  C:39FDH         LINE#         408
  C:3A09H         LINE#         409
  C:3A17H         LINE#         410
  C:3A1CH         LINE#         411
  C:3A1EH         LINE#         412
  C:3A30H         LINE#         413
  C:3A44H         LINE#         414
  C:3A47H         LINE#         415
  C:3A55H         LINE#         416
  C:3A71H         LINE#         417
  C:3A71H         LINE#         418
  C:3A7DH         LINE#         419
  C:3A8BH         LINE#         420
  C:3A90H         LINE#         421
  C:3A92H         LINE#         422
  C:3AA4H         LINE#         423
  C:3AB8H         LINE#         426
  C:3ABAH         LINE#         428
  C:3ABAH         LINE#         429
  C:3AC1H         LINE#         430
  C:3AC1H         LINE#         433
  C:3AC7H         LINE#         435
  -------         ENDPROC       _TRAITEMENT_G
  -------         PROC          _TRAITEMENT_L
  X:00C5H         SYMBOL        com
  X:00C8H         SYMBOL        commande
  -------         DO            
  D:0007H         SYMBOL        Lumiere_Intensite
  D:0007H         SYMBOL        Lumiere_Duree
  D:0007H         SYMBOL        Lumiere_Extinction
  D:0007H         SYMBOL        Lumiere_Nbre
  X:00EEH         SYMBOL        tab
  X:00F2H         SYMBOL        j
  -------         ENDDO         
  C:2CBEH         LINE#         443
  C:2CC9H         LINE#         444
  C:2CC9H         LINE#         452
  C:2CD2H         LINE#         453
  C:2CD8H         LINE#         454
  C:2CDBH         LINE#         455
  C:2CDBH         LINE#         456
  C:2CF3H         LINE#         457
  C:2CF3H         LINE#         458
BL51 BANKED LINKER/LOCATER V6.22                                                      05/23/2018  10:43:45  PAGE 37


  C:2CF3H         LINE#         459
  C:2CFCH         LINE#         460
  C:2D23H         LINE#         461
  C:2D3DH         LINE#         463
  C:2D40H         LINE#         464
  C:2D60H         LINE#         465
  C:2D68H         LINE#         466
  C:2D6DH         LINE#         467
  C:2D6FH         LINE#         468
  C:2D6FH         LINE#         469
  C:2D76H         LINE#         470
  C:2D76H         LINE#         471
  C:2D7FH         LINE#         472
  C:2DA6H         LINE#         473
  C:2DC0H         LINE#         475
  C:2DC3H         LINE#         476
  C:2DD3H         LINE#         477
  C:2DDBH         LINE#         478
  C:2DE0H         LINE#         479
  C:2DE2H         LINE#         480
  C:2DE2H         LINE#         481
  C:2DE9H         LINE#         482
  C:2DE9H         LINE#         483
  C:2DF2H         LINE#         484
  C:2E19H         LINE#         485
  C:2E33H         LINE#         486
  C:2E36H         LINE#         487
  C:2E46H         LINE#         488
  C:2E4EH         LINE#         489
  C:2E53H         LINE#         490
  C:2E55H         LINE#         491
  C:2E55H         LINE#         492
  C:2E5CH         LINE#         493
  C:2E5CH         LINE#         494
  C:2E65H         LINE#         495
  C:2E8CH         LINE#         496
  C:2EA6H         LINE#         497
  C:2EA9H         LINE#         498
  C:2EB9H         LINE#         499
  C:2EC1H         LINE#         500
  C:2EC6H         LINE#         501
  C:2EC8H         LINE#         502
  C:2EC8H         LINE#         503
  C:2ECFH         LINE#         504
  C:2ECFH         LINE#         505
  C:2ED1H         LINE#         506
  C:2ED1H         LINE#         509
  C:2ED1H         LINE#         510
  C:2ED1H         LINE#         511
  C:2ED7H         LINE#         512
  C:2EDDH         LINE#         513
  C:2EE2H         LINE#         514
  C:2EE8H         LINE#         515
  C:2EF0H         LINE#         516
  C:2EF0H         LINE#         517
  C:2EF0H         LINE#         518
  C:2EF0H         LINE#         519
BL51 BANKED LINKER/LOCATER V6.22                                                      05/23/2018  10:43:45  PAGE 38


  C:2EF0H         LINE#         520
  C:2EF0H         LINE#         521
  C:2EF6H         LINE#         522
  -------         ENDPROC       _TRAITEMENT_L
  -------         PROC          _TRAITEMENT_M
  X:00C5H         SYMBOL        com
  X:00C8H         SYMBOL        commande
  -------         DO            
  X:00EEH         SYMBOL        j
  X:00F0H         SYMBOL        tab
  X:00F2H         SYMBOL        angle
  -------         ENDDO         
  C:2743H         LINE#         528
  C:274EH         LINE#         529
  C:274EH         LINE#         533
  C:2763H         LINE#         534
  C:2763H         LINE#         535
  C:2763H         LINE#         536
  C:2766H         LINE#         537
  C:2768H         LINE#         538
  C:2768H         LINE#         539
  C:276EH         LINE#         540
  C:2771H         LINE#         541
  C:2771H         LINE#         542
  C:2794H         LINE#         543
  C:2794H         LINE#         544
  C:2794H         LINE#         545
  C:279AH         LINE#         546
  C:27A4H         LINE#         547
  C:27A4H         LINE#         548
  C:27A4H         LINE#         549
  C:27AAH         LINE#         550
  C:27ADH         LINE#         551
  C:27ADH         LINE#         552
  C:27B2H         LINE#         554
  C:27B5H         LINE#         555
  C:27B5H         LINE#         556
  C:27B5H         LINE#         557
  C:27B5H         LINE#         558
  C:27BBH         LINE#         559
  C:27DAH         LINE#         560
  C:27DAH         LINE#         561
  C:27DAH         LINE#         562
  C:27E0H         LINE#         563
  C:27E9H         LINE#         564
  C:27E9H         LINE#         565
  C:2810H         LINE#         566
  C:282AH         LINE#         567
  C:2832H         LINE#         568
  C:283DH         LINE#         569
  C:2857H         LINE#         570
  C:2857H         LINE#         571
  C:2857H         LINE#         572
  C:2857H         LINE#         573
  C:285AH         LINE#         575
  C:285AH         LINE#         576
  C:285AH         LINE#         577
BL51 BANKED LINKER/LOCATER V6.22                                                      05/23/2018  10:43:45  PAGE 39


  C:285AH         LINE#         579
  C:285DH         LINE#         580
  C:285DH         LINE#         581
  C:2863H         LINE#         582
  C:287BH         LINE#         583
  C:287BH         LINE#         584
  C:2883H         LINE#         585
  C:2883H         LINE#         586
  C:28AAH         LINE#         587
  C:28C4H         LINE#         588
  C:28CCH         LINE#         589
  C:28D7H         LINE#         590
  C:28F1H         LINE#         591
  C:28F1H         LINE#         592
  C:28F1H         LINE#         593
  C:28F1H         LINE#         594
  C:28F4H         LINE#         596
  C:28F4H         LINE#         597
  C:28F4H         LINE#         598
  C:28F4H         LINE#         599
  C:28F7H         LINE#         606
  C:28F7H         LINE#         610
  C:28F7H         LINE#         611
  C:28F7H         LINE#         612
  C:28F7H         LINE#         613
  C:28FDH         LINE#         614
  C:291CH         LINE#         615
  C:291CH         LINE#         616
  C:291CH         LINE#         617
  C:2922H         LINE#         618
  C:292BH         LINE#         619
  C:292BH         LINE#         620
  C:2952H         LINE#         621
  C:296CH         LINE#         622
  C:2974H         LINE#         623
  C:297FH         LINE#         624
  C:2999H         LINE#         625
  C:2999H         LINE#         626
  C:2999H         LINE#         627
  C:2999H         LINE#         628
  C:299CH         LINE#         630
  C:299CH         LINE#         631
  C:299CH         LINE#         632
  C:299CH         LINE#         634
  C:299FH         LINE#         635
  C:299FH         LINE#         636
  C:29A5H         LINE#         637
  C:29BDH         LINE#         638
  C:29BDH         LINE#         639
  C:29C5H         LINE#         640
  C:29C5H         LINE#         641
  C:29ECH         LINE#         642
  C:2A06H         LINE#         643
  C:2A0EH         LINE#         644
  C:2A19H         LINE#         645
  C:2A2DH         LINE#         646
  C:2A38H         LINE#         647
BL51 BANKED LINKER/LOCATER V6.22                                                      05/23/2018  10:43:45  PAGE 40


  C:2A40H         LINE#         648
  C:2A40H         LINE#         649
  C:2A42H         LINE#         651
  C:2A42H         LINE#         652
  C:2A49H         LINE#         653
  C:2A49H         LINE#         654
  C:2A4BH         LINE#         657
  C:2A4BH         LINE#         658
  C:2A4BH         LINE#         659
  C:2A4BH         LINE#         660
  C:2A4DH         LINE#         661
  C:2A4DH         LINE#         662
  C:2A53H         LINE#         663
  C:2A5CH         LINE#         664
  C:2A5CH         LINE#         665
  C:2A5CH         LINE#         666
  C:2A5CH         LINE#         667
  C:2A5CH         LINE#         668
  C:2A5CH         LINE#         669
  C:2A5CH         LINE#         670
  C:2A5CH         LINE#         671
  C:2A62H         LINE#         672
  -------         ENDPROC       _TRAITEMENT_M
  -------         PROC          TRAITEMENT_Q
  X:00C5H         SYMBOL        commande
  C:5DDFH         LINE#         678
  C:5DDFH         LINE#         679
  C:5DDFH         LINE#         681
  C:5DE5H         LINE#         682
  C:5DEBH         LINE#         683
  -------         ENDPROC       TRAITEMENT_Q
  -------         PROC          _TRAITEMENT_R
  X:00C5H         SYMBOL        com
  X:00C8H         SYMBOL        commande
  -------         DO            
  X:00EEH         SYMBOL        angle
  X:00F0H         SYMBOL        tab
  X:00F3H         SYMBOL        j
  -------         ENDDO         
  C:3F25H         LINE#         684
  C:3F30H         LINE#         685
  C:3F30H         LINE#         689
  C:3F49H         LINE#         690
  C:3F49H         LINE#         691
  C:3F49H         LINE#         692
  C:3F49H         LINE#         693
  C:3F4FH         LINE#         694
  C:3F52H         LINE#         695
  C:3F52H         LINE#         696
  C:3F52H         LINE#         697
  C:3F52H         LINE#         698
  C:3F58H         LINE#         699
  C:3F5BH         LINE#         700
  C:3F5BH         LINE#         701
  C:3F5BH         LINE#         702
  C:3F5BH         LINE#         703
  C:3F70H         LINE#         704
BL51 BANKED LINKER/LOCATER V6.22                                                      05/23/2018  10:43:45  PAGE 41


  C:3F70H         LINE#         705
  C:3F76H         LINE#         706
  C:3F79H         LINE#         707
  C:3F79H         LINE#         708
  C:3F7DH         LINE#         709
  C:3F7DH         LINE#         710
  C:3F83H         LINE#         711
  C:3F86H         LINE#         712
  C:3F86H         LINE#         713
  C:3F86H         LINE#         714
  C:3F86H         LINE#         715
  C:3F86H         LINE#         716
  C:3FA2H         LINE#         717
  C:3FA2H         LINE#         718
  C:3FA2H         LINE#         719
  C:3FA2H         LINE#         720
  C:3FA8H         LINE#         721
  C:3FB1H         LINE#         722
  C:3FB1H         LINE#         723
  C:3FD8H         LINE#         724
  C:3FF2H         LINE#         725
  C:3FF2H         LINE#         726
  C:3FF2H         LINE#         727
  C:3FF4H         LINE#         728
  C:3FF4H         LINE#         729
  C:3FF4H         LINE#         730
  C:3FF4H         LINE#         731
  C:3FFAH         LINE#         732
  C:4003H         LINE#         733
  C:4003H         LINE#         734
  C:402AH         LINE#         735
  C:4044H         LINE#         736
  C:4055H         LINE#         737
  C:405DH         LINE#         738
  C:405FH         LINE#         739
  C:405FH         LINE#         740
  C:405FH         LINE#         741
  C:405FH         LINE#         742
  C:4065H         LINE#         743
  C:406EH         LINE#         744
  C:4077H         LINE#         745
  C:4077H         LINE#         746
  C:4077H         LINE#         747
  C:4077H         LINE#         748
  C:4077H         LINE#         749
  C:4077H         LINE#         750
  C:4077H         LINE#         751
  C:4077H         LINE#         752
  C:4077H         LINE#         753
  C:4077H         LINE#         754
  C:4077H         LINE#         755
  C:407DH         LINE#         756
  -------         ENDPROC       _TRAITEMENT_R
  -------         PROC          _TRAITEMENT_S
  X:00C5H         SYMBOL        com
  X:00C8H         SYMBOL        commande
  -------         DO            
BL51 BANKED LINKER/LOCATER V6.22                                                      05/23/2018  10:43:45  PAGE 42


  X:00EEH         SYMBOL        i
  X:00F0H         SYMBOL        f_b
  X:00F1H         SYMBOL        t_son
  X:00F2H         SYMBOL        t_silence
  X:00F3H         SYMBOL        bip_b
  X:00F4H         SYMBOL        tab
  D:0007H         SYMBOL        frequence
  D:0007H         SYMBOL        duree_son
  D:0007H         SYMBOL        duree_silence
  D:0007H         SYMBOL        nombre_Bips
  -------         ENDDO         
  C:2A63H         LINE#         757
  C:2A6EH         LINE#         758
  C:2A6EH         LINE#         760
  C:2A74H         LINE#         761
  C:2A78H         LINE#         762
  C:2A7CH         LINE#         763
  C:2A80H         LINE#         770
  C:2A98H         LINE#         771
  C:2A98H         LINE#         772
  C:2A9DH         LINE#         773
  C:2AAAH         LINE#         774
  C:2AAAH         LINE#         775
  C:2AB2H         LINE#         776
  C:2AB2H         LINE#         777
  C:2AD9H         LINE#         778
  C:2AF3H         LINE#         779
  C:2AFCH         LINE#         780
  C:2B0CH         LINE#         781
  C:2B0CH         LINE#         782
  C:2B13H         LINE#         783
  C:2B15H         LINE#         785
  C:2B15H         LINE#         786
  C:2B1AH         LINE#         787
  C:2B22H         LINE#         788
  C:2B22H         LINE#         789
  C:2B2BH         LINE#         790
  C:2B2BH         LINE#         791
  C:2B52H         LINE#         792
  C:2B6CH         LINE#         793
  C:2B75H         LINE#         794
  C:2B85H         LINE#         795
  C:2B85H         LINE#         796
  C:2B8CH         LINE#         797
  C:2B8EH         LINE#         799
  C:2B8EH         LINE#         800
  C:2B93H         LINE#         801
  C:2B9BH         LINE#         802
  C:2B9BH         LINE#         803
  C:2BA4H         LINE#         804
  C:2BA4H         LINE#         805
  C:2BCBH         LINE#         806
  C:2BE5H         LINE#         807
  C:2BEEH         LINE#         808
  C:2BFEH         LINE#         809
  C:2BFEH         LINE#         810
  C:2C05H         LINE#         811
BL51 BANKED LINKER/LOCATER V6.22                                                      05/23/2018  10:43:45  PAGE 43


  C:2C07H         LINE#         813
  C:2C07H         LINE#         814
  C:2C0CH         LINE#         815
  C:2C14H         LINE#         816
  C:2C14H         LINE#         817
  C:2C1DH         LINE#         818
  C:2C1DH         LINE#         819
  C:2C44H         LINE#         820
  C:2C5EH         LINE#         821
  C:2C67H         LINE#         822
  C:2C77H         LINE#         823
  C:2C77H         LINE#         824
  C:2C7EH         LINE#         825
  C:2C80H         LINE#         827
  C:2C80H         LINE#         828
  C:2C85H         LINE#         829
  C:2C8DH         LINE#         830
  C:2C8DH         LINE#         832
  C:2C8FH         LINE#         834
  C:2C8FH         LINE#         835
  C:2C97H         LINE#         836
  C:2C9FH         LINE#         837
  C:2CA7H         LINE#         838
  C:2CAFH         LINE#         839
  C:2CAFH         LINE#         840
  C:2CB1H         LINE#         842
  C:2CB1H         LINE#         843
  C:2CB7H         LINE#         844
  C:2CB7H         LINE#         845
  C:2CBDH         LINE#         846
  -------         ENDPROC       _TRAITEMENT_S
  -------         PROC          _TRAITEMENT_T
  X:00C5H         SYMBOL        com
  X:00C8H         SYMBOL        commande
  -------         DO            
  D:0005H         SYMBOL        vitesse
  X:00EEH         SYMBOL        tab
  D:0006H         SYMBOL        j
  -------         ENDDO         
  C:55DEH         LINE#         847
  C:55E9H         LINE#         848
  C:55E9H         LINE#         854
  C:55EDH         LINE#         855
  C:55EDH         LINE#         856
  C:560CH         LINE#         857
  C:5617H         LINE#         858
  C:5622H         LINE#         859
  C:5624H         LINE#         860
  C:562EH         LINE#         861
  C:5637H         LINE#         862
  C:5637H         LINE#         863
  C:5641H         LINE#         864
  C:5650H         LINE#         865
  C:5659H         LINE#         866
  C:5659H         LINE#         867
  C:565FH         LINE#         869
  -------         ENDPROC       _TRAITEMENT_T
BL51 BANKED LINKER/LOCATER V6.22                                                      05/23/2018  10:43:45  PAGE 44


  -------         PROC          _MESSAGE
  X:009CH         SYMBOL        com
  -------         DO            
  X:009FH         SYMBOL        commande
  -------         ENDDO         
  C:312FH         LINE#         871
  C:313AH         LINE#         884
  C:313DH         LINE#         885
  C:3146H         LINE#         886
  C:314BH         LINE#         887
  C:314FH         LINE#         888
  C:3153H         LINE#         889
  C:3155H         LINE#         890
  C:3159H         LINE#         891
  C:315DH         LINE#         892
  C:3161H         LINE#         893
  C:3165H         LINE#         894
  C:3169H         LINE#         895
  C:316DH         LINE#         897
  C:31A1H         LINE#         898
  C:31A1H         LINE#         899
  C:31A1H         LINE#         900
  C:31A1H         LINE#         901
  C:31C2H         LINE#         902
  C:31C5H         LINE#         903
  C:31C5H         LINE#         904
  C:31C5H         LINE#         905
  C:31C5H         LINE#         906
  C:31E6H         LINE#         907
  C:31E9H         LINE#         908
  C:31E9H         LINE#         909
  C:31E9H         LINE#         910
  C:31E9H         LINE#         911
  C:320AH         LINE#         912
  C:320DH         LINE#         913
  C:320DH         LINE#         914
  C:320DH         LINE#         915
  C:320DH         LINE#         916
  C:3223H         LINE#         917
  C:3226H         LINE#         919
  C:3226H         LINE#         920
  C:3226H         LINE#         921
  C:3226H         LINE#         922
  C:323CH         LINE#         923
  C:323FH         LINE#         925
  C:323FH         LINE#         926
  C:323FH         LINE#         927
  C:323FH         LINE#         928
  C:3260H         LINE#         929
  C:3263H         LINE#         930
  C:3263H         LINE#         931
  C:3263H         LINE#         932
  C:3263H         LINE#         933
  C:3284H         LINE#         934
  C:3287H         LINE#         935
  C:3287H         LINE#         936
  C:3287H         LINE#         937
BL51 BANKED LINKER/LOCATER V6.22                                                      05/23/2018  10:43:45  PAGE 45


  C:3287H         LINE#         940
  C:3287H         LINE#         941
  C:3287H         LINE#         942
  C:3287H         LINE#         943
  C:3287H         LINE#         946
  C:3287H         LINE#         948
  C:3287H         LINE#         949
  C:3287H         LINE#         950
  C:3287H         LINE#         951
  C:32A8H         LINE#         952
  C:32ABH         LINE#         953
  C:32ABH         LINE#         954
  C:32ABH         LINE#         955
  C:32ABH         LINE#         956
  C:32CCH         LINE#         958
  C:32CEH         LINE#         959
  C:32CEH         LINE#         960
  C:32CEH         LINE#         961
  C:32CEH         LINE#         962
  C:32EFH         LINE#         963
  C:32F1H         LINE#         964
  C:32F1H         LINE#         966
  C:32F1H         LINE#         967
  C:32F1H         LINE#         968
  C:3312H         LINE#         969
  C:3314H         LINE#         970
  C:3314H         LINE#         971
  C:3314H         LINE#         972
  C:3342H         LINE#         973
  C:3344H         LINE#         974
  C:3344H         LINE#         975
  C:3344H         LINE#         976
  C:334BH         LINE#         977
  C:334BH         LINE#         978
  C:334BH         LINE#         980
  C:3351H         LINE#         981
  -------         ENDPROC       _MESSAGE
  -------         PROC          MAIN
  -------         DO            
  X:0000H         SYMBOL        commande
  X:0026H         SYMBOL        message_s
  X:0058H         SYMBOL        mess
  X:005EH         SYMBOL        echo
  X:0061H         SYMBOL        com
  X:0093H         SYMBOL        a
  X:0094H         SYMBOL        i
  X:0095H         SYMBOL        b
  X:0097H         SYMBOL        code_err
  X:0098H         SYMBOL        f_b
  X:0099H         SYMBOL        t_son
  X:009AH         SYMBOL        t_silence
  X:009BH         SYMBOL        bip_b
  -------         ENDDO         
  C:3AC8H         LINE#         985
  C:3AC8H         LINE#         986
  C:3AC8H         LINE#         990
  C:3ADBH         LINE#         991
BL51 BANKED LINKER/LOCATER V6.22                                                      05/23/2018  10:43:45  PAGE 46


  C:3AEEH         LINE#         992
  C:3B01H         LINE#         993
  C:3B14H         LINE#         996
  C:3B19H         LINE#         997
  C:3B1DH         LINE#         998
  C:3B1FH         LINE#         1001
  C:3B23H         LINE#         1002
  C:3B27H         LINE#         1003
  C:3B2BH         LINE#         1004
  C:3B2FH         LINE#         1006
  C:3B31H         LINE#         1007
  C:3B34H         LINE#         1008
  C:3B37H         LINE#         1009
  C:3B3AH         LINE#         1010
  C:3B3DH         LINE#         1011
  C:3B40H         LINE#         1012
  C:3B43H         LINE#         1013
  C:3B46H         LINE#         1014
  C:3B49H         LINE#         1015
  C:3B4CH         LINE#         1016
  C:3B4FH         LINE#         1017
  C:3B52H         LINE#         1018
  C:3B55H         LINE#         1019
  C:3B57H         LINE#         1020
  C:3B59H         LINE#         1021
  C:3B63H         LINE#         1022
  C:3B65H         LINE#         1024
  C:3B6EH         LINE#         1035
  C:3B6EH         LINE#         1037
  C:3B7DH         LINE#         1038
  C:3B91H         LINE#         1039
  C:3BA5H         LINE#         1041
  C:3BADH         LINE#         1043
  C:3BB2H         LINE#         1044
  C:3BB6H         LINE#         1045
  C:3BC3H         LINE#         1063
  C:3BD2H         LINE#         1067
  C:3BE8H         LINE#         1069
  C:3BF4H         LINE#         1070
  C:3C09H         LINE#         1071
  C:3C09H         LINE#         1072
  C:3C15H         LINE#         1073
  C:3C1EH         LINE#         1074
  C:3C1EH         LINE#         1075
  C:3C2BH         LINE#         1076
  C:3C3AH         LINE#         1077
  C:3C43H         LINE#         1078
  C:3C43H         LINE#         1080
  -------         ENDPROC       MAIN
  -------         PROC          ISR_TIMER2
  C:0026H         LINE#         1084
  C:0026H         LINE#         1085
  C:0028H         LINE#         1086
  C:002AH         LINE#         1087
  -------         ENDPROC       ISR_TIMER2
  -------         PROC          ISR_TIMER3
  C:555AH         LINE#         1089
BL51 BANKED LINKER/LOCATER V6.22                                                      05/23/2018  10:43:45  PAGE 47


  C:5577H         LINE#         1090
  C:557AH         LINE#         1091
  C:5585H         LINE#         1092
  C:55C3H         LINE#         1094
  -------         ENDPROC       ISR_TIMER3
  -------         ENDMOD        MAIN

  -------         MODULE        MESURE_COURANT
  C:0000H         SYMBOL        _ICE_DUMMY_
  C:5297H         PUBLIC        Courant_ADC
  D:00E8H         PUBLIC        ADC0CN
  D:00A8H         PUBLIC        IE
  D:00D8H         PUBLIC        PCA0CN
  D:00B8H         PUBLIC        IP
  D:00C0H         PUBLIC        SMB0CN
  D:00F8H         PUBLIC        SPI0CN
  D:0088H         PUBLIC        TCON
  D:0098H         PUBLIC        SCON0
  D:00C8H         PUBLIC        T2CON
  D:00D0H         PUBLIC        PSW
  -------         PROC          COURANT_ADC
  -------         DO            
  X:0722H         SYMBOL        tension_AO
  D:0006H         SYMBOL        courant
  X:0726H         SYMBOL        gain_AO
  X:0728H         SYMBOL        R_SHUNT
  -------         ENDDO         
  C:5297H         LINE#         10
  C:5297H         LINE#         15
  C:52A0H         LINE#         16
  C:52A8H         LINE#         18
  C:52CCH         LINE#         19
  C:532DH         LINE#         21
  C:532DH         LINE#         22
  -------         ENDPROC       COURANT_ADC
  -------         ENDMOD        MESURE_COURANT

  -------         MODULE        SERVOMOTEUR_HORIZONTAL
  C:0000H         SYMBOL        _ICE_DUMMY_
  D:00E8H         PUBLIC        ADC0CN
  D:00A8H         PUBLIC        IE
  D:00D8H         PUBLIC        PCA0CN
  D:00B8H         PUBLIC        IP
  D:00CBH         PUBLIC        RCAP2H
  D:00C0H         PUBLIC        SMB0CN
  D:00CAH         PUBLIC        RCAP2L
  D:00F8H         PUBLIC        SPI0CN
  D:0088H         PUBLIC        TCON
  B:00C8H.7       PUBLIC        TF2
  B:00C8H.2       PUBLIC        TR2
  D:0098H         PUBLIC        SCON0
  C:515AH         PUBLIC        _CDE_Servo_H
  D:00C8H         PUBLIC        T2CON
  D:00D0H         PUBLIC        PSW
  -------         PROC          _CDE_SERVO_H
  X:06CCH         SYMBOL        Angle
  -------         DO            
BL51 BANKED LINKER/LOCATER V6.22                                                      05/23/2018  10:43:45  PAGE 48


  D:0006H         SYMBOL        rech_int
  X:06CEH         SYMBOL        i
  X:06D0H         SYMBOL        temps_imp
  -------         ENDDO         
  C:515AH         LINE#         11
  C:5162H         LINE#         14
  C:5167H         LINE#         17
  C:518AH         LINE#         18
  C:51C6H         LINE#         19
  C:51C8H         LINE#         22
  C:51CAH         LINE#         23
  C:51CEH         LINE#         25
  C:51D0H         LINE#         26
  C:51E1H         LINE#         27
  C:51E4H         LINE#         28
  C:51F0H         LINE#         29
  C:51F0H         LINE#         30
  C:51F2H         LINE#         31
  C:51F4H         LINE#         33
  C:51FCH         LINE#         34
  -------         ENDPROC       _CDE_SERVO_H
  -------         ENDMOD        SERVOMOTEUR_HORIZONTAL

  -------         MODULE        TIMERS
  C:0000H         SYMBOL        _ICE_DUMMY_
  C:5E1AH         PUBLIC        initialisation_Timer0
  D:00E7H         PUBLIC        EIE2
  D:00E8H         PUBLIC        ADC0CN
  D:00A8H         PUBLIC        IE
  C:5E05H         PUBLIC        Config_timer0
  D:0093H         PUBLIC        TMR3RLH
  D:0092H         PUBLIC        TMR3RLL
  B:00C8H.6       PUBLIC        EXF2
  D:00D8H         PUBLIC        PCA0CN
  D:00B8H         PUBLIC        IP
  D:00CBH         PUBLIC        RCAP2H
  D:00C0H         PUBLIC        SMB0CN
  D:00CAH         PUBLIC        RCAP2L
  D:00F8H         PUBLIC        SPI0CN
  D:0089H         PUBLIC        TMOD
  D:0088H         PUBLIC        TCON
  D:0091H         PUBLIC        TMR3CN
  B:0088H.5       PUBLIC        TF0
  B:00A8H.5       PUBLIC        ET2
  B:00C8H.7       PUBLIC        TF2
  D:008CH         PUBLIC        TH0
  D:00CDH         PUBLIC        TH2
  D:008AH         PUBLIC        TL0
  D:00CCH         PUBLIC        TL2
  B:00B8H.5       PUBLIC        PT2
  B:0088H.4       PUBLIC        TR0
  B:00C8H.2       PUBLIC        TR2
  B:00C8H.5       PUBLIC        RCLK0
  B:00C8H.4       PUBLIC        TCLK0
  B:00C8H.3       PUBLIC        EXEN2
  D:0098H         PUBLIC        SCON0
  D:00C8H         PUBLIC        T2CON
BL51 BANKED LINKER/LOCATER V6.22                                                      05/23/2018  10:43:45  PAGE 49


  D:0095H         PUBLIC        TMR3H
  D:008EH         PUBLIC        CKCON
  C:5C9CH         PUBLIC        Config_Timer2
  C:5CC0H         PUBLIC        Config_Timer3
  D:0094H         PUBLIC        TMR3L
  D:00D0H         PUBLIC        PSW
  -------         PROC          CONFIG_TIMER2
  C:5C9CH         LINE#         9
  C:5C9CH         LINE#         10
  C:5C9EH         LINE#         12
  C:5CA1H         LINE#         14
  C:5CA3H         LINE#         15
  C:5CA5H         LINE#         17
  C:5CA7H         LINE#         18
  C:5CA9H         LINE#         20
  C:5CACH         LINE#         22
  C:5CAEH         LINE#         25
  C:5CB1H         LINE#         26
  C:5CB3H         LINE#         29
  C:5CB6H         LINE#         30
  C:5CB9H         LINE#         33
  C:5CBBH         LINE#         36
  C:5CBDH         LINE#         38
  C:5CBFH         LINE#         39
  -------         ENDPROC       CONFIG_TIMER2
  -------         PROC          CONFIG_TIMER0
  C:5E05H         LINE#         41
  C:5E05H         LINE#         42
  C:5E08H         LINE#         43
  C:5E0AH         LINE#         44
  C:5E0CH         LINE#         45
  C:5E0FH         LINE#         46
  -------         ENDPROC       CONFIG_TIMER0
  -------         PROC          INITIALISATION_TIMER0
  C:5E1AH         LINE#         48
  C:5E1AH         LINE#         49
  C:5E1CH         LINE#         50
  C:5E1EH         LINE#         51
  C:5E21H         LINE#         52
  C:5E23H         LINE#         53
  -------         ENDPROC       INITIALISATION_TIMER0
  -------         PROC          CONFIG_TIMER3
  -------         DO            
  D:0006H         SYMBOL        recharge
  -------         ENDDO         
  C:5CC0H         LINE#         55
  C:5CC0H         LINE#         58
  C:5CC3H         LINE#         60
  C:5CD1H         LINE#         61
  C:5CD3H         LINE#         62
  C:5CD7H         LINE#         64
  C:5CDAH         LINE#         65
  C:5CDDH         LINE#         67
  C:5CE0H         LINE#         69
  C:5CE3H         LINE#         71
  -------         ENDPROC       CONFIG_TIMER3
  -------         ENDMOD        TIMERS
BL51 BANKED LINKER/LOCATER V6.22                                                      05/23/2018  10:43:45  PAGE 50



  -------         MODULE        TRANSMISSION_SPI
  C:0000H         SYMBOL        _ICE_DUMMY_
  D:0080H         PUBLIC        P0
  D:0090H         PUBLIC        P1
  D:00A0H         PUBLIC        P2
  D:00B0H         PUBLIC        P3
  D:00E8H         PUBLIC        ADC0CN
  D:00A8H         PUBLIC        IE
  C:002EH         PUBLIC        _trame_emise
  C:5DBFH         PUBLIC        _debut_trame
  C:5DECH         PUBLIC        trame_recue
  D:00D8H         PUBLIC        PCA0CN
  D:00B8H         PUBLIC        IP
  D:00C0H         PUBLIC        SMB0CN
  D:00F8H         PUBLIC        SPI0CN
  B:00F8H.7       PUBLIC        SPIF
  D:0088H         PUBLIC        TCON
  C:5E24H         PUBLIC        fin_trame
  C:575AH         PUBLIC        _echange_trame
  C:5E35H         PUBLIC        _echange_octet
  D:0098H         PUBLIC        SCON0
  D:00C8H         PUBLIC        T2CON
  B:00A0H.5       PUBLIC        NSS_slave
  D:009BH         PUBLIC        SPI0DAT
  D:00D0H         PUBLIC        PSW
  -------         PROC          _TRAME_EMISE
  X:06DCH         SYMBOL        trame
  -------         DO            
  X:06DDH         SYMBOL        i
  -------         ENDDO         
  C:002EH         LINE#         11
  C:0033H         LINE#         13
  C:005FH         LINE#         15
  C:0061H         LINE#         16
  C:0063H         LINE#         17
  C:0069H         LINE#         19
  C:006CH         LINE#         21
  C:006EH         LINE#         22
  C:0070H         LINE#         23
  -------         ENDPROC       _TRAME_EMISE
  -------         PROC          TRAME_RECUE
  -------         DO            
  X:06DBH         SYMBOL        ret
  -------         ENDDO         
  C:5DECH         LINE#         26
  C:5DECH         LINE#         28
  C:5DF1H         LINE#         29
  C:5DF8H         LINE#         30
  -------         ENDPROC       TRAME_RECUE
  -------         PROC          _DEBUT_TRAME
  X:06DBH         SYMBOL        com
  C:5DBFH         LINE#         32
  C:5DC4H         LINE#         35
  C:5DC7H         LINE#         36
  -------         ENDPROC       _DEBUT_TRAME
  -------         PROC          _ECHANGE_OCTET
BL51 BANKED LINKER/LOCATER V6.22                                                      05/23/2018  10:43:45  PAGE 51


  D:0007H         SYMBOL        octet
  -------         DO            
  D:0007H         SYMBOL        ret
  -------         ENDDO         
  C:5E35H         LINE#         40
  C:5E35H         LINE#         42
  C:5E38H         LINE#         43
  C:5E3BH         LINE#         45
  C:5E3BH         LINE#         46
  -------         ENDPROC       _ECHANGE_OCTET
  -------         PROC          FIN_TRAME
  C:5E24H         LINE#         48
  C:5E24H         LINE#         49
  C:5E29H         LINE#         50
  -------         ENDPROC       FIN_TRAME
  -------         PROC          _ECHANGE_TRAME
  X:06D0H         SYMBOL        msg
  D:0005H         SYMBOL        taille
  X:06D4H         SYMBOL        com
  -------         DO            
  X:06D5H         SYMBOL        rep
  X:06D6H         SYMBOL        p
  X:06D9H         SYMBOL        i
  -------         ENDDO         
  C:575AH         LINE#         53
  C:5765H         LINE#         56
  C:576FH         LINE#         58
  C:5777H         LINE#         60
  C:579DH         LINE#         61
  C:57B4H         LINE#         62
  C:57CEH         LINE#         64
  C:57D1H         LINE#         65
  C:57D3H         LINE#         66
  -------         ENDPROC       _ECHANGE_TRAME
  -------         ENDMOD        TRANSMISSION_SPI

  -------         MODULE        UART0_RINGBUFFER_LIB
  C:0000H         SYMBOL        _ICE_DUMMY_
  D:00E8H         PUBLIC        ADC0CN
  D:00A8H         PUBLIC        IE
  X:0B1BH         SYMBOL        inbuf
  D:00D8H         PUBLIC        PCA0CN
  X:0B3BH         SYMBOL        outbuf
  D:00B8H         PUBLIC        IP
  C:5660H         PUBLIC        serInchar_Bin
  C:597AH         PUBLIC        _serOutstring
  C:58B2H         PUBLIC        serInchar
  D:00C0H         PUBLIC        SMB0CN
  C:54D0H         PUBLIC        _serOutchar
  B:0021H.1       SYMBOL        TXactive
  D:00F8H         PUBLIC        SPI0CN
  D:0087H         PUBLIC        PCON
  D:0089H         PUBLIC        TMOD
  D:0088H         PUBLIC        TCON
  C:5D9CH         PUBLIC        cfg_UART0_mode1
  C:5A36H         PUBLIC        init_Serial_Buffer
  C:4BD1H         PUBLIC        UART0_ISR
BL51 BANKED LINKER/LOCATER V6.22                                                      05/23/2018  10:43:45  PAGE 52


  C:5D77H         PUBLIC        CFG_Clock_UART
  B:00A8H.4       PUBLIC        ES0
  B:00A8H.3       PUBLIC        ET1
  B:0098H.0       PUBLIC        RI0
  B:0088H.7       PUBLIC        TF1
  B:0098H.1       PUBLIC        TI0
  D:008DH         PUBLIC        TH1
  X:0B5BH         SYMBOL        in
  B:0088H.6       PUBLIC        TR1
  X:0B63H         SYMBOL        out
  B:00C8H.5       PUBLIC        RCLK0
  B:00C8H.4       PUBLIC        TCLK0
  D:0099H         PUBLIC        SBUF0
  D:0098H         PUBLIC        SCON0
  D:00C8H         PUBLIC        T2CON
  D:008EH         PUBLIC        CKCON
  D:00D0H         PUBLIC        PSW
  -------         PROC          UART0_ISR
  C:4BD1H         LINE#         134
  C:4BE4H         LINE#         138
  C:4BE7H         LINE#         139
  C:4BE7H         LINE#         140
  C:4C03H         LINE#         141
  C:4C12H         LINE#         142
  C:4C3BH         LINE#         144
  C:4C3DH         LINE#         145
  C:4C3FH         LINE#         146
  C:4C41H         LINE#         147
  C:4C43H         LINE#         149
  C:4C43H         LINE#         150
  C:4C7EH         LINE#         151
  C:4C8DH         LINE#         152
  C:4CB6H         LINE#         154
  C:4CB6H         LINE#         155
  C:4CB8H         LINE#         156
  C:4CB8H         LINE#         157
  -------         ENDPROC       UART0_ISR
  -------         PROC          INIT_SERIAL_BUFFER
  C:5A36H         LINE#         162
  C:5A36H         LINE#         163
  C:5A63H         LINE#         164
  C:5A90H         LINE#         165
  -------         ENDPROC       INIT_SERIAL_BUFFER
  -------         PROC          _SEROUTCHAR
  D:0007H         SYMBOL        c
  C:54D0H         LINE#         169
  C:54D0H         LINE#         170
  C:5516H         LINE#         171
  C:5516H         LINE#         172
  C:5524H         LINE#         173
  C:554DH         LINE#         175
  C:5550H         LINE#         176
  C:5552H         LINE#         177
  C:5554H         LINE#         178
  C:5554H         LINE#         179
  C:5557H         LINE#         180
  C:5557H         LINE#         181
BL51 BANKED LINKER/LOCATER V6.22                                                      05/23/2018  10:43:45  PAGE 53


  C:5559H         LINE#         182
  -------         ENDPROC       _SEROUTCHAR
  -------         PROC          SERINCHAR
  -------         DO            
  D:0005H         SYMBOL        c
  -------         ENDDO         
  C:58B2H         LINE#         188
  C:58B2H         LINE#         191
  C:58CEH         LINE#         192
  C:58CEH         LINE#         194
  C:58DCH         LINE#         195
  C:5910H         LINE#         196
  C:5913H         LINE#         197
  C:5913H         LINE#         198
  C:5915H         LINE#         199
  -------         ENDPROC       SERINCHAR
  -------         PROC          SERINCHAR_BIN
  -------         DO            
  D:0005H         SYMBOL        c
  X:0C09H         SYMBOL        return_code
  -------         ENDDO         
  C:5660H         LINE#         207
  C:5660H         LINE#         209
  C:5667H         LINE#         211
  C:5683H         LINE#         212
  C:5683H         LINE#         214
  C:5691H         LINE#         215
  C:56C5H         LINE#         216
  C:56D4H         LINE#         217
  C:56D4H         LINE#         219
  C:56DCH         LINE#         220
  -------         ENDPROC       SERINCHAR_BIN
  -------         PROC          _SEROUTSTRING
  X:06A6H         SYMBOL        buf
  -------         DO            
  X:06A9H         SYMBOL        len
  X:06AAH         SYMBOL        code_err
  -------         ENDDO         
  C:597AH         LINE#         224
  C:5985H         LINE#         225
  C:598AH         LINE#         227
  C:59ABH         LINE#         228
  C:59D2H         LINE#         229
  C:59D7H         LINE#         230
  -------         ENDPROC       _SEROUTSTRING
  -------         PROC          CFG_CLOCK_UART
  C:5D77H         LINE#         244
  C:5D77H         LINE#         245
  C:5D7AH         LINE#         246
  C:5D7DH         LINE#         247
  C:5D80H         LINE#         248
  C:5D82H         LINE#         250
  C:5D85H         LINE#         251
  C:5D87H         LINE#         252
  C:5D89H         LINE#         253
  -------         ENDPROC       CFG_CLOCK_UART
  -------         PROC          CFG_UART0_MODE1
BL51 BANKED LINKER/LOCATER V6.22                                                      05/23/2018  10:43:45  PAGE 54


  C:5D9CH         LINE#         259
  C:5D9CH         LINE#         260
  C:5D9EH         LINE#         261
  C:5DA0H         LINE#         262
  C:5DA3H         LINE#         263
  C:5DA6H         LINE#         264
  C:5DA9H         LINE#         265
  C:5DABH         LINE#         267
  C:5DADH         LINE#         268
  -------         ENDPROC       CFG_UART0_MODE1
  -------         ENDMOD        UART0_RINGBUFFER_LIB

  -------         MODULE        UART1
  C:0000H         SYMBOL        _ICE_DUMMY_
  D:00E7H         PUBLIC        EIE2
  D:00E8H         PUBLIC        ADC0CN
  D:00A8H         PUBLIC        IE
  X:0B6BH         SYMBOL        inbuf
  D:00D8H         PUBLIC        PCA0CN
  X:0B8BH         SYMBOL        outbuf
  D:00B8H         PUBLIC        IP
  C:5DCFH         PUBLIC        CFG_UART1
  D:00C0H         PUBLIC        SMB0CN
  B:0021H.2       SYMBOL        TXactive
  D:00F8H         PUBLIC        SPI0CN
  D:0087H         PUBLIC        PCON
  D:0088H         PUBLIC        TCON
  C:4AD5H         PUBLIC        UART1_ISR
  C:56DDH         PUBLIC        serInchar_Bin1
  C:59D8H         PUBLIC        _serOutstring1
  C:5916H         PUBLIC        serInchar1
  X:0BABH         SYMBOL        in
  C:5445H         PUBLIC        _serOutchar1
  X:0BB3H         SYMBOL        out
  D:00F2H         PUBLIC        SBUF1
  D:0098H         PUBLIC        SCON0
  D:00F1H         PUBLIC        SCON1
  D:00C8H         PUBLIC        T2CON
  D:00C9H         PUBLIC        T4CON
  C:5A91H         PUBLIC        init_Serial_Buffer1
  D:00D0H         PUBLIC        PSW
  -------         PROC          UART1_ISR
  C:4AD5H         LINE#         86
  C:4AE8H         LINE#         95
  C:4AEDH         LINE#         96
  C:4AEDH         LINE#         97
  C:4B09H         LINE#         98
  C:4B18H         LINE#         99
  C:4B41H         LINE#         101
  C:4B43H         LINE#         102
  C:4B45H         LINE#         103
  C:4B48H         LINE#         105
  C:4B4AH         LINE#         107
  C:4B4AH         LINE#         108
  C:4B85H         LINE#         109
  C:4B94H         LINE#         110
  C:4BBDH         LINE#         112
BL51 BANKED LINKER/LOCATER V6.22                                                      05/23/2018  10:43:45  PAGE 55


  C:4BBDH         LINE#         113
  C:4BC0H         LINE#         114
  C:4BC0H         LINE#         115
  -------         ENDPROC       UART1_ISR
  -------         PROC          INIT_SERIAL_BUFFER1
  C:5A91H         LINE#         120
  C:5A91H         LINE#         121
  C:5ABEH         LINE#         122
  C:5AEBH         LINE#         123
  -------         ENDPROC       INIT_SERIAL_BUFFER1
  -------         PROC          _SEROUTCHAR1
  D:0007H         SYMBOL        c
  C:5445H         LINE#         127
  C:5445H         LINE#         129
  C:548BH         LINE#         130
  C:548BH         LINE#         131
  C:5499H         LINE#         132
  C:54C2H         LINE#         134
  C:54C5H         LINE#         135
  C:54C7H         LINE#         136
  C:54CAH         LINE#         138
  C:54CAH         LINE#         139
  C:54CDH         LINE#         140
  C:54CDH         LINE#         142
  C:54CFH         LINE#         143
  -------         ENDPROC       _SEROUTCHAR1
  -------         PROC          SERINCHAR1
  -------         DO            
  D:0005H         SYMBOL        c
  -------         ENDDO         
  C:5916H         LINE#         149
  C:5916H         LINE#         152
  C:5932H         LINE#         153
  C:5932H         LINE#         154
  C:5940H         LINE#         155
  C:5974H         LINE#         156
  C:5977H         LINE#         157
  C:5977H         LINE#         159
  C:5979H         LINE#         160
  -------         ENDPROC       SERINCHAR1
  -------         PROC          SERINCHAR_BIN1
  -------         DO            
  D:0005H         SYMBOL        c
  X:0C0BH         SYMBOL        return_code
  -------         ENDDO         
  C:56DDH         LINE#         168
  C:56DDH         LINE#         170
  C:56E4H         LINE#         172
  C:5700H         LINE#         174
  C:570EH         LINE#         175
  C:5742H         LINE#         176
  C:5751H         LINE#         177
  C:5751H         LINE#         180
  C:5759H         LINE#         181
  -------         ENDPROC       SERINCHAR_BIN1
  -------         PROC          _SEROUTSTRING1
  X:06A6H         SYMBOL        buf
BL51 BANKED LINKER/LOCATER V6.22                                                      05/23/2018  10:43:45  PAGE 56


  -------         DO            
  X:06A9H         SYMBOL        len
  X:06AAH         SYMBOL        code_err
  -------         ENDDO         
  C:59D8H         LINE#         185
  C:59E3H         LINE#         186
  C:59E8H         LINE#         188
  C:5A09H         LINE#         189
  C:5A30H         LINE#         190
  C:5A35H         LINE#         191
  -------         ENDPROC       _SEROUTSTRING1
  -------         PROC          CFG_UART1
  C:5DCFH         LINE#         195
  C:5DCFH         LINE#         196
  C:5DD2H         LINE#         197
  C:5DD5H         LINE#         198
  C:5DD8H         LINE#         199
  C:5DDBH         LINE#         201
  C:5DDEH         LINE#         202
  -------         ENDPROC       CFG_UART1
  -------         ENDMOD        UART1

  -------         MODULE        ULTRASON
  C:0000H         SYMBOL        _ICE_DUMMY_
  D:0080H         PUBLIC        P0
  D:0090H         PUBLIC        P1
  D:00A0H         PUBLIC        P2
  D:00B0H         PUBLIC        P3
  D:00E8H         PUBLIC        ADC0CN
  D:00A8H         PUBLIC        IE
  B:00A0H.4       PUBLIC        Echo_ultrason_ar
  D:00D8H         PUBLIC        PCA0CN
  B:00A0H.2       PUBLIC        Echo_ultrason_av
  D:00B8H         PUBLIC        IP
  D:00C0H         PUBLIC        SMB0CN
  B:00A0H.3       PUBLIC        Trig_ultrason_ar
  B:00A0H.1       PUBLIC        Trig_ultrason_av
  D:00F8H         PUBLIC        SPI0CN
  D:0088H         PUBLIC        TCON
  B:0088H.5       PUBLIC        TF0
  D:008CH         PUBLIC        TH0
  C:49C1H         PUBLIC        MES_Dist_AR
  D:008AH         PUBLIC        TL0
  C:48ADH         PUBLIC        MES_Dist_AV
  B:0088H.4       PUBLIC        TR0
  D:0098H         PUBLIC        SCON0
  D:00C8H         PUBLIC        T2CON
  D:00D0H         PUBLIC        PSW
  -------         PROC          MES_DIST_AV
  -------         DO            
  D:0004H         SYMBOL        Delta
  X:06F2H         SYMBOL        TL0_tmp
  X:06F6H         SYMBOL        TH0_tmp
  D:0004H         SYMBOL        Duree
  X:06FAH         SYMBOL        Dist
  D:0004H         SYMBOL        Duree2
  X:06FEH         SYMBOL        i
BL51 BANKED LINKER/LOCATER V6.22                                                      05/23/2018  10:43:45  PAGE 57


  X:0700H         SYMBOL        RegistreTemp
  -------         ENDDO         
  C:48ADH         LINE#         12
  C:48ADH         LINE#         19
  C:48B4H         LINE#         22
  C:48B7H         LINE#         23
  C:48B9H         LINE#         24
  C:48C3H         LINE#         25
  C:48CDH         LINE#         27
  C:48DEH         LINE#         28
  C:48DFH         LINE#         29
  C:48EBH         LINE#         30
  C:48EDH         LINE#         32
  C:48EFH         LINE#         33
  C:48F1H         LINE#         35
  C:48F7H         LINE#         37
  C:48FAH         LINE#         38
  C:4904H         LINE#         39
  C:4907H         LINE#         41
  C:4907H         LINE#         42
  C:4913H         LINE#         43
  C:491FH         LINE#         44
  C:4922H         LINE#         45
  C:4924H         LINE#         46
  C:4953H         LINE#         47
  C:4984H         LINE#         49
  C:4995H         LINE#         50
  C:49A0H         LINE#         51
  C:49B0H         LINE#         52
  C:49B2H         LINE#         53
  C:49B2H         LINE#         55
  C:49C0H         LINE#         56
  -------         ENDPROC       MES_DIST_AV
  -------         PROC          MES_DIST_AR
  -------         DO            
  D:0004H         SYMBOL        Delta
  X:06F2H         SYMBOL        TL0_tmp
  X:06F6H         SYMBOL        TH0_tmp
  D:0004H         SYMBOL        Duree
  X:06FAH         SYMBOL        Dist
  D:0004H         SYMBOL        Duree2
  X:06FEH         SYMBOL        i
  X:0700H         SYMBOL        RegistreTemp
  -------         ENDDO         
  C:49C1H         LINE#         58
  C:49C1H         LINE#         59
  C:49C1H         LINE#         66
  C:49C8H         LINE#         69
  C:49CBH         LINE#         70
  C:49CDH         LINE#         71
  C:49D7H         LINE#         72
  C:49E1H         LINE#         74
  C:49F2H         LINE#         75
  C:49F3H         LINE#         76
  C:49FFH         LINE#         77
  C:4A01H         LINE#         79
  C:4A03H         LINE#         80
BL51 BANKED LINKER/LOCATER V6.22                                                      05/23/2018  10:43:45  PAGE 58


  C:4A05H         LINE#         82
  C:4A0BH         LINE#         84
  C:4A0EH         LINE#         85
  C:4A18H         LINE#         86
  C:4A1BH         LINE#         88
  C:4A1BH         LINE#         89
  C:4A27H         LINE#         90
  C:4A33H         LINE#         91
  C:4A36H         LINE#         92
  C:4A38H         LINE#         93
  C:4A67H         LINE#         94
  C:4A98H         LINE#         96
  C:4AA9H         LINE#         97
  C:4AB4H         LINE#         98
  C:4AC4H         LINE#         99
  C:4AC6H         LINE#         100
  C:4AC6H         LINE#         102
  C:4AD4H         LINE#         103
  -------         ENDPROC       MES_DIST_AR
  -------         ENDMOD        ULTRASON

  -------         MODULE        ENCODAGE_POINTEUR_LUM
  C:0000H         SYMBOL        _ICE_DUMMY_
  D:00E8H         PUBLIC        ADC0CN
  D:00A8H         PUBLIC        IE
  D:00D8H         PUBLIC        PCA0CN
  D:00B8H         PUBLIC        IP
  D:00C0H         PUBLIC        SMB0CN
  C:5BE5H         PUBLIC        pointeur_lum
  D:00F8H         PUBLIC        SPI0CN
  D:0088H         PUBLIC        TCON
  C:5E44H         SYMBOL        _?ix1000
  D:0098H         PUBLIC        SCON0
  D:00C8H         PUBLIC        T2CON
  D:00D0H         PUBLIC        PSW
  -------         PROC          POINTEUR_LUM
  X:06A6H         SYMBOL        com
  -------         DO            
  X:06CCH         SYMBOL        rep
  D:0007H         SYMBOL        commande_SPI
  D:0006H         SYMBOL        taille_trame
  -------         ENDDO         
  C:5BE5H         LINE#         9
  C:5BE5H         LINE#         10
  C:5BF8H         LINE#         11
  C:5BFAH         LINE#         12
  C:5BFCH         LINE#         14
  C:5BFCH         LINE#         15
  C:5C04H         LINE#         16
  C:5C0CH         LINE#         17
  C:5C14H         LINE#         18
  C:5C1CH         LINE#         20
  C:5C2CH         LINE#         21
  -------         ENDPROC       POINTEUR_LUM
  -------         ENDMOD        ENCODAGE_POINTEUR_LUM

  -------         MODULE        ?C?FPADD
BL51 BANKED LINKER/LOCATER V6.22                                                      05/23/2018  10:43:45  PAGE 59


  C:00ADH         PUBLIC        ?C?FPADD
  C:00A9H         PUBLIC        ?C?FPSUB
  -------         ENDMOD        ?C?FPADD

  -------         MODULE        ?C?FPMUL
  C:019EH         PUBLIC        ?C?FPMUL
  -------         ENDMOD        ?C?FPMUL

  -------         MODULE        ?C?FPDIV
  C:02A7H         PUBLIC        ?C?FPDIV
  -------         ENDMOD        ?C?FPDIV

  -------         MODULE        ?C?FPCMP
  C:0346H         PUBLIC        ?C?FPCMP
  C:0344H         PUBLIC        ?C?FPCMP3
  -------         ENDMOD        ?C?FPCMP

  -------         MODULE        ?C?FCAST
  C:03C7H         PUBLIC        ?C?FCASTC
  C:03C2H         PUBLIC        ?C?FCASTI
  C:03BDH         PUBLIC        ?C?FCASTL
  -------         ENDMOD        ?C?FCAST

  -------         MODULE        ?C?CASTF
  C:03FBH         PUBLIC        ?C?CASTF
  -------         ENDMOD        ?C?CASTF

  -------         MODULE        PRINTF
  X:06F2H         PUBLIC        ?_PRINTF?BYTE
  X:06F2H         PUBLIC        ?_SPRINTF?BYTE
  C:232BH         PUBLIC        _PRINTF
  C:2325H         PUBLIC        _SPRINTF
  -------         ENDMOD        PRINTF

  -------         MODULE        ATAN
  C:468EH         PUBLIC        _ATAN
  -------         ENDMOD        ATAN

  -------         MODULE        CEIL
  C:4CC9H         PUBLIC        _ceil
  -------         ENDMOD        CEIL

  -------         MODULE        POW
  X:06A6H         PUBLIC        ?_pow?BYTE
  C:3DBFH         PUBLIC        _pow
  -------         ENDMOD        POW

  -------         MODULE        ?C?CHKFLOAT
  C:047CH         PUBLIC        ?C?CHKFLOAT
  -------         ENDMOD        ?C?CHKFLOAT

  -------         MODULE        ?C?FPNEG
  C:0496H         PUBLIC        ?C?FPNEG
  -------         ENDMOD        ?C?FPNEG

  -------         MODULE        ?C?FPROUND
  C:04A7H         PUBLIC        ?C?FPROUND
BL51 BANKED LINKER/LOCATER V6.22                                                      05/23/2018  10:43:45  PAGE 60


  -------         ENDMOD        ?C?FPROUND

  -------         MODULE        ?C?FPCONVERT
  C:04E4H         PUBLIC        ?C?FPCONVERT
  -------         ENDMOD        ?C?FPCONVERT

  -------         MODULE        EXP
  C:5235H         PUBLIC        _EXP
  -------         ENDMOD        EXP

  -------         MODULE        LOG
  C:432FH         PUBLIC        _LOG
  C:432BH         PUBLIC        _LOG10
  -------         ENDMOD        LOG

  -------         MODULE        ?C?FTNPWR
  C:0666H         PUBLIC        ?C?FTNPWR
  -------         ENDMOD        ?C?FTNPWR

  -------         MODULE        ?C?COPY
  C:0776H         PUBLIC        ?C?COPY
  -------         ENDMOD        ?C?COPY

  -------         MODULE        ?C?SCDIV
  C:079CH         PUBLIC        ?C?SCDIV
  -------         ENDMOD        ?C?SCDIV

  -------         MODULE        ?C?CLDPTR
  C:07BEH         PUBLIC        ?C?CLDPTR
  -------         ENDMOD        ?C?CLDPTR

  -------         MODULE        ?C?CLDOPTR
  C:07D7H         PUBLIC        ?C?CLDOPTR
  -------         ENDMOD        ?C?CLDOPTR

  -------         MODULE        ?C?CSTPTR
  C:0804H         PUBLIC        ?C?CSTPTR
  -------         ENDMOD        ?C?CSTPTR

  -------         MODULE        ?C?CSTOPTR
  C:0816H         PUBLIC        ?C?CSTOPTR
  -------         ENDMOD        ?C?CSTOPTR

  -------         MODULE        ?C?IMUL
  C:0838H         PUBLIC        ?C?IMUL
  -------         ENDMOD        ?C?IMUL

  -------         MODULE        ?C?SIDIV
  C:084AH         PUBLIC        ?C?SIDIV
  -------         ENDMOD        ?C?SIDIV

  -------         MODULE        ?C?IILDX
  C:0880H         PUBLIC        ?C?IILDX
  -------         ENDMOD        ?C?IILDX

  -------         MODULE        ?C?LNEG
  C:0896H         PUBLIC        ?C?LNEG
BL51 BANKED LINKER/LOCATER V6.22                                                      05/23/2018  10:43:45  PAGE 61


  -------         ENDMOD        ?C?LNEG

  -------         MODULE        ?C?SLCMP
  C:08A4H         PUBLIC        ?C?SLCMP
  -------         ENDMOD        ?C?SLCMP

  -------         MODULE        ?C?ULCMP
  C:08BAH         PUBLIC        ?C?ULCMP
  -------         ENDMOD        ?C?ULCMP

  -------         MODULE        ?C?LLDCODE
  C:08CBH         PUBLIC        ?C?LLDCODE
  -------         ENDMOD        ?C?LLDCODE

  -------         MODULE        ?C?LLDXDATA0
  C:08DBH         PUBLIC        ?C?LLDXDATA0
  -------         ENDMOD        ?C?LLDXDATA0

  -------         MODULE        ?C?LLDCODE0
  C:08E7H         PUBLIC        ?C?LLDCODE0
  -------         ENDMOD        ?C?LLDCODE0

  -------         MODULE        ?C?LSTXDATA
  C:08F7H         PUBLIC        ?C?LSTXDATA
  -------         ENDMOD        ?C?LSTXDATA

  -------         MODULE        ?C?LSTKXDATA
  C:0903H         PUBLIC        ?C?LSTKXDATA
  -------         ENDMOD        ?C?LSTKXDATA

  -------         MODULE        ?C?PLDIXDATA
  C:0934H         PUBLIC        ?C?PLDIXDATA
  -------         ENDMOD        ?C?PLDIXDATA

  -------         MODULE        ?C?PSTXDATA
  C:094BH         PUBLIC        ?C?PSTXDATA
  -------         ENDMOD        ?C?PSTXDATA

  -------         MODULE        ?C?CCASE
  C:0954H         PUBLIC        ?C?CCASE
  -------         ENDMOD        ?C?CCASE

  -------         MODULE        PUTCHAR
  C:0076H         PUBLIC        _PUTCHAR
  -------         ENDMOD        PUTCHAR

  -------         MODULE        STRCAT
  X:06FBH         PUBLIC        ?_strcat?BYTE
  C:5847H         PUBLIC        _strcat
  -------         ENDMOD        STRCAT

  -------         MODULE        ?C?STRCPY
  C:0A46H         PUBLIC        ?C?STRCPY
  -------         ENDMOD        ?C?STRCPY

  -------         MODULE        STRLEN
  C:5D4FH         PUBLIC        _STRLEN
BL51 BANKED LINKER/LOCATER V6.22                                                      05/23/2018  10:43:45  PAGE 62


  -------         ENDMOD        STRLEN

  -------         MODULE        ?C?MEMSET
  C:0A63H         PUBLIC        ?C?MEMSET
  -------         ENDMOD        ?C?MEMSET

  -------         MODULE        ?C?UIDIV
  C:0A8FH         PUBLIC        ?C?UIDIV
  -------         ENDMOD        ?C?UIDIV

  -------         MODULE        ?C?ILDIX
  C:0AE4H         PUBLIC        ?C?ILDIX
  -------         ENDMOD        ?C?ILDIX

*** WARNING L16: UNCALLED SEGMENT, IGNORED FOR OVERLAY PROCESS
    SEGMENT: ?PR?_ITOS?FONCTIONS_COTE_SERIALIZER

*** WARNING L16: UNCALLED SEGMENT, IGNORED FOR OVERLAY PROCESS
    SEGMENT: ?PR?SERINCHAR?UART0_RINGBUFFER_LIB

*** WARNING L16: UNCALLED SEGMENT, IGNORED FOR OVERLAY PROCESS
    SEGMENT: ?PR?SERINCHAR_BIN?UART0_RINGBUFFER_LIB

*** WARNING L16: UNCALLED SEGMENT, IGNORED FOR OVERLAY PROCESS
    SEGMENT: ?PR?SERINCHAR_BIN1?UART1

Program Size: data=15.3 xdata=3085 code=24129
LINK/LOCATE RUN COMPLETE.  4 WARNING(S),  0 ERROR(S)
